(lp0
(F37.784062
F-122.486504
tp1
a(F37.761639
F-122.500307
tp2
a(F37.780647
F-122.50015
tp3
a(F37.748092
F-122.491879
tp4
a(F37.738245
F-122.399556
tp5
a(F37.7968296
F-122.4318821
tp6
a(F37.7115409
F-122.433584
tp7
a(F37.7273451
F-122.3976462
tp8
a(F37.721109
F-122.465098
tp9
a(F37.7848176
F-122.3969578
tp10
a(F37.724853
F-122.428922
tp11
a(F37.724119
F-122.422622
tp12
a(F37.75378
F-122.412526
tp13
a(F37.758455
F-122.503363
tp14
a(F37.7230554
F-122.4388725
tp15
a(F37.71942600000001
F-122.410453
tp16
a(F37.755122
F-122.483312
tp17
a(F37.742163
F-122.473814
tp18
a(F37.77478199999999
F-122.490466
tp19
a(F37.7301068
F-122.4369723
tp20
a(F37.8048319
F-122.4190014
tp21
a(F37.737733
F-122.479292
tp22
a(F37.722041
F-122.396185
tp23
a(F37.724063
F-122.418842
tp24
a(F37.7642979
F-122.440213
tp25
a(F37.7812512
F-122.4018318
tp26
a(F37.776002
F-122.484679
tp27
a(F37.732007
F-122.407666
tp28
a(F37.77679
F-122.469059
tp29
a(F37.773261
F-122.493586
tp30
a(F37.794922
F-122.442159
tp31
a(F37.731026
F-122.391244
tp32
a(F37.7528957
F-122.4370476
tp33
a(F37.778192
F-122.497825
tp34
a(F37.7416576
F-122.4726524
tp35
a(F37.8041081
F-122.4467962
tp36
a(F37.793466
F-122.443695
tp37
a(F37.7271069
F-122.384328
tp38
a(F37.755442
F-122.468189
tp39
a(F37.776062
F-122.476174
tp40
a(F37.767714
F-122.425742
tp41
a(F37.8051995
F-122.4231111
tp42
a(F37.7867444
F-122.4344813
tp43
a(F37.773983
F-122.476025
tp44
a(F37.785832
F-122.477803
tp45
a(F37.747492
F-122.475635
tp46
a(F37.7680748
F-122.4217013
tp47
a(F37.783339
F-122.441708
tp48
a(F37.729809
F-122.412793
tp49
a(F37.764462
F-122.472497
tp50
a(F37.760226
F-122.486895
tp51
a(F37.727303
F-122.460169
tp52
a(F37.789525
F-122.3911753
tp53
a(F37.784505
F-122.49289
tp54
a(F37.712946
F-122.404672
tp55
a(F37.74577499999999
F-122.456051
tp56
a(F37.746222
F-122.441969
tp57
a(F37.710188
F-122.442774
tp58
a(F37.75378
F-122.412526
tp59
a(F37.7644672
F-122.4622715
tp60
a(F37.767375
F-122.4269774
tp61
a(F37.7676931
F-122.4491073
tp62
a(F37.764847
F-122.474739
tp63
a(F37.735781
F-122.495937
tp64
a(F37.710304
F-122.451408
tp65
a(F37.7570826
F-122.4277857
tp66
a(F37.7752814
F-122.4114484
tp67
a(F37.714243
F-122.458787
tp68
a(F37.785136
F-122.483283
tp69
a(F37.7936915
F-122.4234902
tp70
a(F37.7396529
F-122.451088
tp71
a(F37.7621405
F-122.4084617
tp72
a(F37.74053
F-122.471952
tp73
a(F37.739424
F-122.389977
tp74
a(F37.7987899
F-122.441927
tp75
a(F37.7912928
F-122.4088209
tp76
a(F37.776431
F-122.443798
tp77
a(F37.7656304
F-122.4576682
tp78
a(F37.7963867
F-122.420728
tp79
a(F37.7813853
F-122.4214224
tp80
a(F37.738286
F-122.4776081
tp81
a(F37.747136
F-122.461041
tp82
a(F37.7679485
F-122.4274862
tp83
a(F37.7539931
F-122.3906892
tp84
a(F37.729742
F-122.450859
tp85
a(F37.765336
F-122.462394
tp86
a(F37.787112
F-122.434903
tp87
a(F37.7667343
F-122.4297701
tp88
a(F37.790684
F-122.409895
tp89
a(F37.7463872
F-122.4242378
tp90
a(F37.7518608
F-122.4364828
tp91
a(F37.785313
F-122.471783
tp92
a(F37.7749295
F-122.4194155
tp93
a(F37.75378
F-122.412526
tp94
a(F37.74085
F-122.498852
tp95
a(F37.7877452
F-122.4104415
tp96
a(F37.7643635
F-122.4178296
tp97
a(F37.7389815
F-122.426405
tp98
a(F37.794708
F-122.444453
tp99
a(F37.795761
F-122.429869
tp100
a(F37.7609293
F-122.5025302
tp101
a(F37.7640929
F-122.470068
tp102
a(F37.72718
F-122.416808
tp103
a(F37.712048
F-122.457831
tp104
a(F37.774334
F-122.433229
tp105
a(F37.734198
F-122.398117
tp106
a(F37.746128
F-122.49872
tp107
a(F37.712787
F-122.412246
tp108
a(F37.7380388
F-122.4233023
tp109
a(F37.744742
F-122.429321
tp110
a(F37.721663
F-122.452413
tp111
a(F37.790387
F-122.3961664
tp112
a(F37.7383603
F-122.4885258
tp113
a(F37.7811288
F-122.499687
tp114
a(F37.730448
F-122.384147
tp115
a(F37.79657419999999
F-122.4143647
tp116
a(F37.738912
F-122.4398869
tp117
a(F37.7281263
F-122.4047182
tp118
a(F37.72141800000001
F-122.439124
tp119
a(F37.7885576
F-122.4162448
tp120
a(F37.713422
F-122.468307
tp121
a(F37.798158
F-122.43986
tp122
a(F37.71942
F-122.465169
tp123
a(F37.721763
F-122.41169
tp124
a(F37.778049
F-122.464398
tp125
a(F37.776154
F-122.460377
tp126
a(F37.740754
F-122.43166
tp127
a(F37.732751
F-122.492599
tp128
a(F37.7750068
F-122.4436797
tp129
a(F37.7426839
F-122.434154
tp130
a(F37.738831
F-122.479368
tp131
a(F37.76075700000001
F-122.444719
tp132
a(F37.7772049
F-122.3940134
tp133
a(F37.7757683
F-122.4401773
tp134
a(F37.762804
F-122.404014
tp135
a(F37.766112
F-122.435241
tp136
a(F37.7175924
F-122.447525
tp137
a(F37.7167604
F-122.4518038
tp138
a(F37.80073
F-122.416765
tp139
a(F37.759448
F-122.488929
tp140
a(F37.789945
F-122.412727
tp141
a(F37.722643
F-122.4585
tp142
a(F37.775851
F-122.462506
tp143
a(F37.7463841
F-122.4145421
tp144
a(F37.7513677
F-122.4440016
tp145
a(F37.7540273
F-122.4228629
tp146
a(F37.7877452
F-122.4104415
tp147
a(F37.8005643
F-122.4440993
tp148
a(F37.784639
F-122.474547
tp149
a(F37.736408
F-122.447983
tp150
a(F37.7654931
F-122.4285881
tp151
a(F37.7417749
F-122.438591
tp152
a(F37.7716698
F-122.4124245
tp153
a(F37.7934816
F-122.3998213
tp154
a(F37.7821502
F-122.4375171
tp155
a(F37.779851
F-122.468823
tp156
a(F37.727672
F-122.426794
tp157
a(F37.734526
F-122.453758
tp158
a(F37.718758
F-122.396902
tp159
a(F37.750197
F-122.507603
tp160
a(F37.75378
F-122.412526
tp161
a(F37.787038
F-122.450628
tp162
a(F37.72905009999999
F-122.4558404
tp163
a(F37.7877452
F-122.4104415
tp164
a(F37.75698
F-122.440727
tp165
a(F37.737317
F-122.4157538
tp166
a(F37.754034
F-122.437859
tp167
a(F37.7863136
F-122.4454661
tp168
a(F37.7910683
F-122.4113055
tp169
a(F37.7496144
F-122.4424131
tp170
a(F37.75805
F-122.496831
tp171
a(F37.73619679999999
F-122.4358222
tp172
a(F37.716338
F-122.46277
tp173
a(F37.798307
F-122.442917
tp174
a(F37.73796900000001
F-122.396819
tp175
a(F37.71044699999999
F-122.451963
tp176
a(F37.793435
F-122.436199
tp177
a(F37.789945
F-122.412727
tp178
a(F37.752919
F-122.49068
tp179
a(F37.713814
F-122.45733
tp180
a(F37.745651
F-122.475492
tp181
a(F37.797244
F-122.421415
tp182
a(F37.709125
F-122.448245
tp183
a(F37.795732
F-122.440926
tp184
a(F37.7923108
F-122.4187112
tp185
a(F37.7974207
F-122.3981644
tp186
a(F37.7264
F-122.420901
tp187
a(F37.730114
F-122.452839
tp188
a(F37.8042225
F-122.4042321
tp189
a(F37.754408
F-122.485413
tp190
a(F37.7341166
F-122.4754631
tp191
a(F37.7611459
F-122.483183
tp192
a(F37.7874582
F-122.4435064
tp193
a(F37.780803
F-122.481233
tp194
a(F37.726982
F-122.4579
tp195
a(F37.7748638
F-122.4931974
tp196
a(F37.710391
F-122.409982
tp197
a(F37.753296
F-122.459307
tp198
a(F37.7961153
F-122.4173109
tp199
a(F37.740208
F-122.4199186
tp200
a(F37.778621
F-122.3918058
tp201
a(F37.752825
F-122.497541
tp202
a(F37.8042145
F-122.4162623
tp203
a(F37.7201567
F-122.4563533
tp204
a(F37.7909023
F-122.4507486
tp205
a(F37.7800251
F-122.4934688
tp206
a(F37.716002
F-122.453456
tp207
a(F37.7788432
F-122.3914892
tp208
a(F37.751586
F-122.468353
tp209
a(F37.759041
F-122.444209
tp210
a(F37.71633
F-122.465724
tp211
a(F37.742181
F-122.499495
tp212
a(F37.710186
F-122.441511
tp213
a(F37.7476
F-122.47312
tp214
a(F37.7835729
F-122.454258
tp215
a(F37.7686569
F-122.4279498
tp216
a(F37.7424773
F-122.4844272
tp217
a(F37.758206
F-122.438347
tp218
a(F37.759424
F-122.481397
tp219
a(F37.752057
F-122.438253
tp220
a(F37.761824
F-122.402626
tp221
a(F37.7425452
F-122.4819645
tp222
a(F37.7813853
F-122.4214224
tp223
a(F37.73428
F-122.469034
tp224
a(F37.7117689
F-122.397418
tp225
a(F37.7721306
F-122.4126252
tp226
a(F37.728959
F-122.407699
tp227
a(F37.744075
F-122.451879
tp228
a(F37.778036
F-122.432512
tp229
a(F37.7211489
F-122.472932
tp230
a(F37.713652
F-122.43904
tp231
a(F37.770017
F-122.449908
tp232
a(F37.787126
F-122.434193
tp233
a(F37.729155
F-122.426482
tp234
a(F37.731385
F-122.430877
tp235
a(F37.7809211
F-122.4711375
tp236
a(F37.73886299999999
F-122.448507
tp237
a(F37.777139
F-122.492792
tp238
a(F37.7631609
F-122.396895
tp239
a(F37.72571
F-122.426791
tp240
a(F37.7509045
F-122.4254676
tp241
a(F37.759655
F-122.46675
tp242
a(F37.784251
F-122.471586
tp243
a(F37.7476168
F-122.4057013
tp244
a(F37.774842
F-122.5103841
tp245
a(F37.7653416
F-122.4467227
tp246
a(F37.723104
F-122.474025
tp247
a(F37.7815566
F-122.3929543
tp248
a(F37.7509604
F-122.4110728
tp249
a(F37.78840539999999
F-122.4097688
tp250
a(F37.735082
F-122.444433
tp251
a(F37.7297302
F-122.4006213
tp252
a(F37.7761632
F-122.4931768
tp253
a(F37.730595
F-122.418509
tp254
a(F37.72390499999999
F-122.413669
tp255
a(F37.718036
F-122.455003
tp256
a(F37.7596261
F-122.4091927
tp257
a(F37.7648744
F-122.4791294
tp258
a(F37.7214529
F-122.394946
tp259
a(F37.781898
F-122.439543
tp260
a(F37.715936
F-122.438513
tp261
a(F37.7486449
F-122.4031587
tp262
a(F37.7406705
F-122.4124654
tp263
a(F37.736082
F-122.4953
tp264
a(F37.7204527
F-122.4495594
tp265
a(F37.781982
F-122.448407
tp266
a(F37.755064
F-122.429003
tp267
a(F37.786775
F-122.445564
tp268
a(F37.7991334
F-122.4068169
tp269
a(F37.74273300000001
F-122.501792
tp270
a(F37.7381263
F-122.3911404
tp271
a(F37.714978
F-122.465584
tp272
a(F37.7231359
F-122.409066
tp273
a(F37.7712154
F-122.4150435
tp274
a(F37.8023663
F-122.4191484
tp275
a(F37.7710082
F-122.412518
tp276
a(F37.78999
F-122.43498
tp277
a(F37.757212
F-122.433302
tp278
a(F37.8009437
F-122.4116671
tp279
a(F37.796963
F-122.419322
tp280
a(F37.739858
F-122.462058
tp281
a(F37.7912928
F-122.4088209
tp282
a(F37.7823247
F-122.4592986
tp283
a(F37.71167
F-122.469627
tp284
a(F37.7672953
F-122.421806
tp285
a(F37.719166
F-122.468671
tp286
a(F37.7815269
F-122.474372
tp287
a(F37.711678
F-122.434177
tp288
a(F37.7868797
F-122.3934879
tp289
a(F37.774292
F-122.407495
tp290
a(F37.7877452
F-122.4104415
tp291
a(F37.7335432
F-122.4086882
tp292
a(F37.73522
F-122.489921
tp293
a(F37.7781311
F-122.3932477
tp294
a(F37.7835543
F-122.392432
tp295
a(F37.7448784
F-122.4824659
tp296
a(F37.710737
F-122.432086
tp297
a(F37.747118
F-122.473159
tp298
a(F37.7634391
F-122.3894761
tp299
a(F37.7623869
F-122.489612
tp300
a(F37.708694
F-122.460173
tp301
a(F37.7889859
F-122.4309761
tp302
a(F37.733044
F-122.434939
tp303
a(F37.783264
F-122.476039
tp304
a(F37.720048
F-122.394136
tp305
a(F37.747623
F-122.493662
tp306
a(F37.733306
F-122.447864
tp307
a(F37.7774232
F-122.3958836
tp308
a(F37.7178056
F-122.4012447
tp309
a(F37.7782095
F-122.3958387
tp310
a(F37.7861093
F-122.4352947
tp311
a(F37.732837
F-122.388355
tp312
a(F37.7640901
F-122.4109297
tp313
a(F37.7679198
F-122.4063323
tp314
a(F37.755815
F-122.4156951
tp315
a(F37.791275
F-122.424791
tp316
a(F37.778017
F-122.49563
tp317
a(F37.7411848
F-122.4309878
tp318
a(F37.75863500000001
F-122.401669
tp319
a(F37.773181
F-122.446787
tp320
a(F37.736402
F-122.403145
tp321
a(F37.763457
F-122.496795
tp322
a(F37.7659809
F-122.435847
tp323
a(F37.7278639
F-122.439428
tp324
a(F37.7912928
F-122.4088209
tp325
a(F37.708874
F-122.454017
tp326
a(F37.7095492
F-122.4222191
tp327
a(F37.734528
F-122.446359
tp328
a(F37.7267045
F-122.3939582
tp329
a(F37.7319226
F-122.4254292
tp330
a(F37.7212206
F-122.461047
tp331
a(F37.7494272
F-122.4317862
tp332
a(F37.714317
F-122.458023
tp333
a(F37.7846541
F-122.4765006
tp334
a(F37.791519
F-122.446975
tp335
a(F37.741539
F-122.38872
tp336
a(F37.772965
F-122.4228872
tp337
a(F37.7401352
F-122.4073684
tp338
a(F37.7759069
F-122.505604
tp339
a(F37.772085
F-122.435192
tp340
a(F37.758642
F-122.475379
tp341
a(F37.731037
F-122.428171
tp342
a(F37.7207048
F-122.4115337
tp343
a(F37.75188
F-122.478127
tp344
a(F37.774025
F-122.49875
tp345
a(F37.797035
F-122.431879
tp346
a(F37.7850997
F-122.4205869
tp347
a(F37.751259
F-122.493706
tp348
a(F37.7623327
F-122.4345094
tp349
a(F37.757854
F-122.396386
tp350
a(F37.73926
F-122.390757
tp351
a(F37.7794539
F-122.3966763
tp352
a(F37.7390051
F-122.4305048
tp353
a(F37.74024199999999
F-122.484423
tp354
a(F37.767783
F-122.43628
tp355
a(F37.718593
F-122.3888227
tp356
a(F37.726506
F-122.4223
tp357
a(F37.733296
F-122.450318
tp358
a(F37.761075
F-122.496792
tp359
a(F37.742437
F-122.439492
tp360
a(F37.7429342
F-122.475324
tp361
a(F37.791812
F-122.441878
tp362
a(F37.788393
F-122.443158
tp363
a(F37.758787
F-122.47712
tp364
a(F37.7703064
F-122.4244214
tp365
a(F37.75274100000001
F-122.401727
tp366
a(F37.720363
F-122.462471
tp367
a(F37.76028100000001
F-122.49659
tp368
a(F37.75394
F-122.465936
tp369
a(F37.758427
F-122.431731
tp370
a(F37.782379
F-122.420163
tp371
a(F37.75378
F-122.412526
tp372
a(F37.77795
F-122.4054165
tp373
a(F37.7867744
F-122.4224906
tp374
a(F37.7856781
F-122.4776393
tp375
a(F37.7646019
F-122.435716
tp376
a(F37.75378
F-122.412526
tp377
a(F37.733584
F-122.446373
tp378
a(F37.8021794
F-122.4205944
tp379
a(F37.7870882
F-122.3911279
tp380
a(F37.734142
F-122.49741
tp381
a(F37.7396376
F-122.4129105
tp382
a(F37.7783901
F-122.412238
tp383
a(F37.7133554
F-122.3982924
tp384
a(F37.801765
F-122.441207
tp385
a(F37.8001802
F-122.4050002
tp386
a(F37.75681489999999
F-122.4401709
tp387
a(F37.7901141
F-122.4388495
tp388
a(F37.7867744
F-122.4224906
tp389
a(F37.7435649
F-122.495403
tp390
a(F37.804252
F-122.419197
tp391
a(F37.7333682
F-122.4042178
tp392
a(F37.723031
F-122.470543
tp393
a(F37.7337946
F-122.4164568
tp394
a(F37.7616166
F-122.4196351
tp395
a(F37.753929
F-122.49935
tp396
a(F37.742817
F-122.4186037
tp397
a(F37.780951
F-122.404831
tp398
a(F37.746324
F-122.441517
tp399
a(F37.77649
F-122.487958
tp400
a(F37.713459
F-122.463215
tp401
a(F37.7792018
F-122.4405819
tp402
a(F37.8014783
F-122.4036443
tp403
a(F37.773573
F-122.483518
tp404
a(F37.7885361
F-122.439069
tp405
a(F37.744406
F-122.49695
tp406
a(F37.725869
F-122.402584
tp407
a(F37.748697
F-122.40807
tp408
a(F37.7569919
F-122.481708
tp409
a(F37.7852565
F-122.4151645
tp410
a(F37.732747
F-122.457502
tp411
a(F37.711711
F-122.447765
tp412
a(F37.757083
F-122.500039
tp413
a(F37.782065
F-122.490001
tp414
a(F37.7622902
F-122.3990826
tp415
a(F37.753316
F-122.459047
tp416
a(F37.7864392
F-122.4174989
tp417
a(F37.754142
F-122.410733
tp418
a(F37.7353466
F-122.4165648
tp419
a(F37.7586527
F-122.4160186
tp420
a(F37.7994931
F-122.4148841
tp421
a(F37.710877
F-122.406638
tp422
a(F37.7778459
F-122.476303
tp423
a(F37.742931
F-122.491062
tp424
a(F37.7763247
F-122.446006
tp425
a(F37.7699317
F-122.4212781
tp426
a(F37.789037
F-122.456572
tp427
a(F37.803934
F-122.414117
tp428
a(F37.7968296
F-122.4318821
tp429
a(F37.794249
F-122.4222672
tp430
a(F37.776651
F-122.502425
tp431
a(F37.726953
F-122.463048
tp432
a(F37.73435010000001
F-122.4341367
tp433
a(F37.7625802
F-122.4232552
tp434
a(F37.737539
F-122.388315
tp435
a(F37.758737
F-122.428385
tp436
a(F37.742938
F-122.42998
tp437
a(F37.7591547
F-122.435026
tp438
a(F37.766032
F-122.419411
tp439
a(F37.7752599
F-122.4388322
tp440
a(F37.762065
F-122.503104
tp441
a(F37.722364
F-122.468755
tp442
a(F37.74977210000001
F-122.4717189
tp443
a(F37.773185
F-122.49358
tp444
a(F37.7631358
F-122.4428152
tp445
a(F37.756411
F-122.433344
tp446
a(F37.7819188
F-122.4080007
tp447
a(F37.7201276
F-122.4443463
tp448
a(F37.729279
F-122.424063
tp449
a(F37.7709057
F-122.4134375
tp450
a(F37.753903
F-122.440113
tp451
a(F37.7737153
F-122.4253176
tp452
a(F37.7641076
F-122.4617996
tp453
a(F37.7845372
F-122.458812
tp454
a(F37.747703
F-122.486431
tp455
a(F37.710971
F-122.404376
tp456
a(F37.7357539
F-122.5057739
tp457
a(F37.750516
F-122.426979
tp458
a(F37.8027764
F-122.4165519
tp459
a(F37.79612729999999
F-122.4146558
tp460
a(F37.758982
F-122.488317
tp461
a(F37.776064
F-122.461447
tp462
a(F37.803401
F-122.411196
tp463
a(F37.7128689
F-122.4355713
tp464
a(F37.8010388
F-122.4282508
tp465
a(F37.744397
F-122.422209
tp466
a(F37.761341
F-122.481088
tp467
a(F37.751103
F-122.406972
tp468
a(F37.7429257
F-122.4578565
tp469
a(F37.7572232
F-122.388526
tp470
a(F37.715912
F-122.464826
tp471
a(F37.762811
F-122.443129
tp472
a(F37.713035
F-122.439991
tp473
a(F37.7919671
F-122.4149317
tp474
a(F37.730789
F-122.464688
tp475
a(F37.7865827
F-122.4330541
tp476
a(F37.7876853
F-122.4010321
tp477
a(F37.80360599999999
F-122.409074
tp478
a(F37.778047
F-122.481729
tp479
a(F37.7688212
F-122.4359087
tp480
a(F37.775065
F-122.493301
tp481
a(F37.72685999999999
F-122.437298
tp482
a(F37.7635358
F-122.4197964
tp483
a(F37.721388
F-122.455434
tp484
a(F37.763621
F-122.453608
tp485
a(F37.78161770000001
F-122.4571585
tp486
a(F37.774183
F-122.49754
tp487
a(F37.7823343
F-122.4032604
tp488
a(F37.7624939
F-122.438771
tp489
a(F37.726854
F-122.419993
tp490
a(F37.7772049
F-122.3940134
tp491
a(F37.727701
F-122.4175983
tp492
a(F37.730724
F-122.43534
tp493
a(F37.7852565
F-122.4151645
tp494
a(F37.789079
F-122.437781
tp495
a(F37.779545
F-122.508075
tp496
a(F37.787964
F-122.4206204
tp497
a(F37.7825338
F-122.4830085
tp498
a(F37.7807737
F-122.4021633
tp499
a(F37.755662
F-122.409086
tp500
a(F37.803255
F-122.422339
tp501
a(F37.765061
F-122.444255
tp502
a(F37.7426016
F-122.4264228
tp503
a(F37.726503
F-122.405659
tp504
a(F37.779445
F-122.442725
tp505
a(F37.7634922
F-122.4644616
tp506
a(F37.751715
F-122.413668
tp507
a(F37.75378
F-122.412526
tp508
a(F37.8013097
F-122.4270873
tp509
a(F37.7227198
F-122.455899
tp510
a(F37.7626739
F-122.398125
tp511
a(F37.71054400000001
F-122.423216
tp512
a(F37.7823499
F-122.4325388
tp513
a(F37.7953189
F-122.4036563
tp514
a(F37.757705
F-122.4229985
tp515
a(F37.7496579
F-122.429748
tp516
a(F37.750484
F-122.489434
tp517
a(F37.747529
F-122.477824
tp518
a(F37.795809
F-122.432772
tp519
a(F37.740218
F-122.479046
tp520
a(F37.7832719
F-122.469482
tp521
a(F37.7880115
F-122.3896827
tp522
a(F37.7273712
F-122.4407351
tp523
a(F37.709224
F-122.435096
tp524
a(F37.7728374
F-122.4370883
tp525
a(F37.8015348
F-122.4372535
tp526
a(F37.789525
F-122.3911753
tp527
a(F37.7865453
F-122.4170704
tp528
a(F37.742631
F-122.45258
tp529
a(F37.7175308
F-122.4473747
tp530
a(F37.7297099
F-122.3913401
tp531
a(F37.78811719999999
F-122.3971511
tp532
a(F37.7121313
F-122.3948469
tp533
a(F37.79688
F-122.426735
tp534
a(F37.747642
F-122.410256
tp535
a(F37.788734
F-122.4289813
tp536
a(F37.7608249
F-122.397644
tp537
a(F37.774383
F-122.42984
tp538
a(F37.7851801
F-122.435781
tp539
a(F37.786807
F-122.446402
tp540
a(F37.7523539
F-122.407864
tp541
a(F37.762336
F-122.389354
tp542
a(F37.795341
F-122.436452
tp543
a(F37.7293866
F-122.4313853
tp544
a(F37.740888
F-122.4635268
tp545
a(F37.7783901
F-122.412238
tp546
a(F37.7213669
F-122.4518808
tp547
a(F37.761544
F-122.396736
tp548
a(F37.7794539
F-122.3966763
tp549
a(F37.744906
F-122.481689
tp550
a(F37.754686
F-122.450395
tp551
a(F37.7107158
F-122.4136456
tp552
a(F37.7912928
F-122.4088209
tp553
a(F37.7338398
F-122.3918535
tp554
a(F37.71948
F-122.465504
tp555
a(F37.7362139
F-122.42361
tp556
a(F37.747343
F-122.42366
tp557
a(F37.764264
F-122.44475
tp558
a(F37.7541057
F-122.4380385
tp559
a(F37.7994046
F-122.4413869
tp560
a(F37.768305
F-122.445211
tp561
a(F37.760412
F-122.407603
tp562
a(F37.7652872
F-122.43686
tp563
a(F37.78660110000001
F-122.3991105
tp564
a(F37.776026
F-122.4639135
tp565
a(F37.719246
F-122.432813
tp566
a(F37.7444736
F-122.4182889
tp567
a(F37.77873
F-122.495058
tp568
a(F37.729195
F-122.4214753
tp569
a(F37.7725099
F-122.497827
tp570
a(F37.732733
F-122.448597
tp571
a(F37.762491
F-122.481017
tp572
a(F37.763463
F-122.454687
tp573
a(F37.749644
F-122.430718
tp574
a(F37.749845
F-122.408312
tp575
a(F37.7994124
F-122.4336069
tp576
a(F37.7715187
F-122.4485498
tp577
a(F37.75250550000001
F-122.3904644
tp578
a(F37.794086
F-122.431091
tp579
a(F37.764079
F-122.439775
tp580
a(F37.795406
F-122.432015
tp581
a(F37.7481789
F-122.4289101
tp582
a(F37.761231
F-122.405452
tp583
a(F37.7112596
F-122.4416696
tp584
a(F37.741945
F-122.484959
tp585
a(F37.748202
F-122.49406
tp586
a(F37.7316273
F-122.397955
tp587
a(F37.774531
F-122.487837
tp588
a(F37.721526
F-122.450784
tp589
a(F37.77128620000001
F-122.393734
tp590
a(F37.7754164
F-122.4364108
tp591
a(F37.7826632
F-122.4668331
tp592
a(F37.776381
F-122.44569
tp593
a(F37.7273171
F-122.4414961
tp594
a(F37.7625913
F-122.4664284
tp595
a(F37.7693705
F-122.446333
tp596
a(F37.758
F-122.433207
tp597
a(F37.757091
F-122.404521
tp598
a(F37.791104
F-122.433258
tp599
a(F37.72137600000001
F-122.459712
tp600
a(F37.759636
F-122.484639
tp601
a(F37.758259
F-122.43396
tp602
a(F37.780958
F-122.454416
tp603
a(F37.746118
F-122.4168129
tp604
a(F37.771288
F-122.449634
tp605
a(F37.74953
F-122.492023
tp606
a(F37.737478
F-122.458662
tp607
a(F37.780944
F-122.504476
tp608
a(F37.720253
F-122.46247
tp609
a(F37.76695000000001
F-122.418768
tp610
a(F37.7129667
F-122.4089442
tp611
a(F37.744949
F-122.481485
tp612
a(F37.7334699
F-122.399565
tp613
a(F37.74543999999999
F-122.441466
tp614
a(F37.780552
F-122.501637
tp615
a(F37.7635474
F-122.4805239
tp616
a(F37.773392
F-122.430155
tp617
a(F37.7869168
F-122.3971999
tp618
a(F37.789553
F-122.4123553
tp619
a(F37.755704
F-122.424654
tp620
a(F37.749826
F-122.441898
tp621
a(F37.754343
F-122.472449
tp622
a(F37.7238929
F-122.430336
tp623
a(F37.7795599
F-122.4408503
tp624
a(F37.789057
F-122.437957
tp625
a(F37.7382565
F-122.4906696
tp626
a(F37.752848
F-122.45
tp627
a(F37.7797816
F-122.5010728
tp628
a(F37.778999
F-122.478533
tp629
a(F37.7576729
F-122.473924
tp630
a(F37.741438
F-122.502777
tp631
a(F37.789945
F-122.412727
tp632
a(F37.776644
F-122.505239
tp633
a(F37.7741832
F-122.3947556
tp634
a(F37.73551399999999
F-122.391413
tp635
a(F37.773915
F-122.47602
tp636
a(F37.79698
F-122.430669
tp637
a(F37.7616153
F-122.4835481
tp638
a(F37.7303597
F-122.4468446
tp639
a(F37.765633
F-122.449216
tp640
a(F37.80061600000001
F-122.405477
tp641
a(F37.778065
F-122.498889
tp642
a(F37.745606
F-122.488436
tp643
a(F37.726849
F-122.425239
tp644
a(F37.7877452
F-122.4104415
tp645
a(F37.807934
F-122.4161327
tp646
a(F37.715535
F-122.45455
tp647
a(F37.758899
F-122.400721
tp648
a(F37.747248
F-122.430459
tp649
a(F37.7746911
F-122.4346255
tp650
a(F37.778913
F-122.473427
tp651
a(F37.730582
F-122.418337
tp652
a(F37.73112
F-122.399119
tp653
a(F37.7647549
F-122.4231074
tp654
a(F37.738405
F-122.488097
tp655
a(F37.8037327
F-122.4072188
tp656
a(F37.7085947
F-122.4269497
tp657
a(F37.756775
F-122.436524
tp658
a(F37.80521
F-122.41913
tp659
a(F37.788734
F-122.4289813
tp660
a(F37.7772258
F-122.4080572
tp661
a(F37.79469
F-122.438153
tp662
a(F37.74213
F-122.461545
tp663
a(F37.70925099999999
F-122.422444
tp664
a(F37.7813853
F-122.4214224
tp665
a(F37.74016599999999
F-122.48913
tp666
a(F37.781206
F-122.45233
tp667
a(F37.732715
F-122.437187
tp668
a(F37.7630093
F-122.3958441
tp669
a(F37.7297579
F-122.429216
tp670
a(F37.71302
F-122.41205
tp671
a(F37.739963
F-122.487627
tp672
a(F37.786901
F-122.3988
tp673
a(F37.733714
F-122.476753
tp674
a(F37.8012668
F-122.407573
tp675
a(F37.7636656
F-122.389228
tp676
a(F37.8054605
F-122.4241338
tp677
a(F37.7749295
F-122.4194155
tp678
a(F37.72994
F-122.384918
tp679
a(F37.753326
F-122.458824
tp680
a(F37.730114
F-122.452753
tp681
a(F37.761502
F-122.462585
tp682
a(F37.7601058
F-122.4991908
tp683
a(F37.7636405
F-122.4643633
tp684
a(F37.735724
F-122.43177
tp685
a(F37.78696900000001
F-122.445672
tp686
a(F37.7347143
F-122.4405985
tp687
a(F37.748969
F-122.436705
tp688
a(F37.7633756
F-122.4744811
tp689
a(F37.78094129999999
F-122.4594453
tp690
a(F37.740397
F-122.469699
tp691
a(F37.756611
F-122.488787
tp692
a(F37.7286736
F-122.4647599
tp693
a(F37.8003969
F-122.434113
tp694
a(F37.763219
F-122.454352
tp695
a(F37.7932132
F-122.4089808
tp696
a(F37.8048294
F-122.4190232
tp697
a(F37.7362368
F-122.4745281
tp698
a(F37.790387
F-122.3961664
tp699
a(F37.761442
F-122.417911
tp700
a(F37.732809
F-122.486582
tp701
a(F37.7360576
F-122.4043585
tp702
a(F37.7852976
F-122.4190323
tp703
a(F37.744546
F-122.414361
tp704
a(F37.731791
F-122.478075
tp705
a(F37.7815012
F-122.4112285
tp706
a(F37.764233
F-122.475769
tp707
a(F37.7753166
F-122.4229477
tp708
a(F37.800618
F-122.406129
tp709
a(F37.75371
F-122.401195
tp710
a(F37.7310059
F-122.4236112
tp711
a(F37.7704011
F-122.4319928
tp712
a(F37.7638443
F-122.4029888
tp713
a(F37.7909769
F-122.4136606
tp714
a(F37.790387
F-122.3961664
tp715
a(F37.7877452
F-122.4104415
tp716
a(F37.7852565
F-122.4151645
tp717
a(F37.7448175
F-122.4248101
tp718
a(F37.733022
F-122.492618
tp719
a(F37.76082
F-122.491358
tp720
a(F37.75469100000001
F-122.421822
tp721
a(F37.7449305
F-122.4145632
tp722
a(F37.728905
F-122.4047
tp723
a(F37.7277561
F-122.4203187
tp724
a(F37.7322608
F-122.4247644
tp725
a(F37.7860278
F-122.4280567
tp726
a(F37.792858
F-122.40894
tp727
a(F37.723559
F-122.42846
tp728
a(F37.740115
F-122.4172669
tp729
a(F37.7995266
F-122.4365584
tp730
a(F37.755423
F-122.477333
tp731
a(F37.71623
F-122.405081
tp732
a(F37.780127
F-122.490597
tp733
a(F37.7826329
F-122.4670488
tp734
a(F37.753605
F-122.505121
tp735
a(F37.7710315
F-122.4133549
tp736
a(F37.780712
F-122.440191
tp737
a(F37.7432985
F-122.4334446
tp738
a(F37.77914579999999
F-122.433652
tp739
a(F37.757243
F-122.4711865
tp740
a(F37.76131900000001
F-122.496645
tp741
a(F37.7897873
F-122.4291416
tp742
a(F37.7850997
F-122.4205869
tp743
a(F37.74875600000001
F-122.453809
tp744
a(F37.7824574
F-122.4800424
tp745
a(F37.759687
F-122.3891258
tp746
a(F37.7285297
F-122.392561
tp747
a(F37.7597853
F-122.4234188
tp748
a(F37.7403814
F-122.4134857
tp749
a(F37.7356875
F-122.4165288
tp750
a(F37.738037
F-122.446671
tp751
a(F37.773579
F-122.443659
tp752
a(F37.765875
F-122.459185
tp753
a(F37.741756
F-122.497312
tp754
a(F37.78942809999999
F-122.3906187
tp755
a(F37.7904254
F-122.4489407
tp756
a(F37.7770181
F-122.4095437
tp757
a(F37.7723716
F-122.4522075
tp758
a(F37.713973
F-122.47447
tp759
a(F37.760964
F-122.506295
tp760
a(F37.7190074
F-122.4039368
tp761
a(F37.7782095
F-122.3958387
tp762
a(F37.759846
F-122.417758
tp763
a(F37.75711800000001
F-122.501568
tp764
a(F37.7619789
F-122.48636
tp765
a(F37.7877452
F-122.4104415
tp766
a(F37.763214
F-122.451229
tp767
a(F37.729341
F-122.389938
tp768
a(F37.7910708
F-122.4043569
tp769
a(F37.7640901
F-122.4109297
tp770
a(F37.77668999999999
F-122.42729
tp771
a(F37.782348
F-122.468344
tp772
a(F37.7939575
F-122.4210895
tp773
a(F37.75241750000001
F-122.4294336
tp774
a(F37.800225
F-122.408435
tp775
a(F37.728597
F-122.454151
tp776
a(F37.780038
F-122.40613
tp777
a(F37.727374
F-122.459285
tp778
a(F37.780233
F-122.443261
tp779
a(F37.752031
F-122.506086
tp780
a(F37.7325066
F-122.4067745
tp781
a(F37.752693
F-122.47063
tp782
a(F37.7606191
F-122.5071928
tp783
a(F37.766076
F-122.437081
tp784
a(F37.742534
F-122.473182
tp785
a(F37.771221
F-122.427639
tp786
a(F37.749217
F-122.475745
tp787
a(F37.7840724
F-122.4759248
tp788
a(F37.759771
F-122.465683
tp789
a(F37.725332
F-122.431273
tp790
a(F37.7884648
F-122.4433271
tp791
a(F37.741744
F-122.48172
tp792
a(F37.7202454
F-122.4583949
tp793
a(F37.732912
F-122.436763
tp794
a(F37.777122
F-122.481625
tp795
a(F37.788162
F-122.44492
tp796
a(F37.79496
F-122.439043
tp797
a(F37.7426901
F-122.4234793
tp798
a(F37.752898
F-122.489599
tp799
a(F37.799634
F-122.425249
tp800
a(F37.767165
F-122.448716
tp801
a(F37.799392
F-122.416001
tp802
a(F37.718027
F-122.397128
tp803
a(F37.7340205
F-122.4321301
tp804
a(F37.728382
F-122.438573
tp805
a(F37.7835714
F-122.3907007
tp806
a(F37.780105
F-122.456339
tp807
a(F37.7120477
F-122.4395216
tp808
a(F37.709041
F-122.417546
tp809
a(F37.71374900000001
F-122.41253
tp810
a(F37.7274664
F-122.3824243
tp811
a(F37.729672
F-122.393676
tp812
a(F37.7777377
F-122.3977399
tp813
a(F37.7330196
F-122.470174
tp814
a(F37.7683706
F-122.4274857
tp815
a(F37.78200810000001
F-122.4782806
tp816
a(F37.740281
F-122.472608
tp817
a(F37.745013
F-122.4205772
tp818
a(F37.779944
F-122.459162
tp819
a(F37.745285
F-122.501972
tp820
a(F37.8018753
F-122.4444152
tp821
a(F37.796779
F-122.417755
tp822
a(F37.7795739
F-122.489313
tp823
a(F37.715716
F-122.407031
tp824
a(F37.7738807
F-122.436177
tp825
a(F37.758781
F-122.481833
tp826
a(F37.7912928
F-122.4088209
tp827
a(F37.755044
F-122.491248
tp828
a(F37.7184275
F-122.3851352
tp829
a(F37.7541747
F-122.4836688
tp830
a(F37.730436
F-122.449567
tp831
a(F37.784062
F-122.462683
tp832
a(F37.719346
F-122.408585
tp833
a(F37.741694
F-122.471005
tp834
a(F37.796462
F-122.419709
tp835
a(F37.755585
F-122.475825
tp836
a(F37.7441
F-122.411034
tp837
a(F37.7949788
F-122.446577
tp838
a(F37.778828
F-122.492915
tp839
a(F37.759254
F-122.485138
tp840
a(F37.8023175
F-122.413355
tp841
a(F37.760835
F-122.477678
tp842
a(F37.732848
F-122.485702
tp843
a(F37.789054
F-122.449431
tp844
a(F37.732202
F-122.447554
tp845
a(F37.7528764
F-122.4372248
tp846
a(F37.780389
F-122.401735
tp847
a(F37.751518
F-122.47712
tp848
a(F37.756934
F-122.429806
tp849
a(F37.778725
F-122.477735
tp850
a(F37.7317336
F-122.4138451
tp851
a(F37.757937
F-122.426528
tp852
a(F37.78690599999999
F-122.464544
tp853
a(F37.752097
F-122.507758
tp854
a(F37.7834748
F-122.3988968
tp855
a(F37.750214
F-122.434606
tp856
a(F37.7635219
F-122.4319932
tp857
a(F37.728335
F-122.382165
tp858
a(F37.73508
F-122.395179
tp859
a(F37.7848176
F-122.3969578
tp860
a(F37.728841
F-122.445107
tp861
a(F37.735955
F-122.4378266
tp862
a(F37.720251
F-122.456904
tp863
a(F37.75378
F-122.412526
tp864
a(F37.7752817
F-122.4164667
tp865
a(F37.747801
F-122.407806
tp866
a(F37.78942809999999
F-122.3906187
tp867
a.