(lp0
(S'6418 CALIFORNIA ST'
p1
(I2
I1
F1780.0
F2500.0
I1912
tp2
tp3
a(S'1346 41ST AVE'
p4
(I2
I4
F2024.0
F2996.0
I1954
tp5
tp6
a(S'433 39TH AVE'
p7
(I1
I1
F2194.0
F3598.0
I1922
tp8
tp9
a(S'2450 QUINTARA ST'
p10
(I1
I1
F1474.0
F2374.0
I1957
tp11
tp12
a(S'2142 QUESADA AVE'
p13
(I1
I1
F995.0
F2495.0
I1944
tp14
tp15
a(S'1990 GREEN ST'
p16
(I1
I1
F690.0
F0.0
I1926
tp17
tp18
a(S'1025 MUNICH ST'
p19
(I1
I1
F1716.0
F3162.0
I1923
tp20
tp21
a(S'28 LYDIA AVE'
p22
(I2
I1
F1626.0
F1500.0
I1998
tp23
tp24
a(S'576 VICTORIA ST'
p25
(I1
I1
F1374.0
F2495.0
I1928
tp26
tp27
a(S'631 FOLSOM ST'
p28
(I1
I0
F1190.0
F0.0
I2009
tp29
tp30
a(S'259 EDINBURGH ST'
p31
(I1
I1
F820.0
F2495.0
I1913
tp32
tp33
a(S'887 PERU AVE'
p34
(I1
I1
F1105.0
F2375.0
I1950
tp35
tp36
a(S'0 UNKNOWN '
p37
(I0
I0
F0.0
F27965.0
I1900
tp38
tp39
a(S'1506 44TH AVE'
p40
(I1
I1
F1275.0
F2247.0
I1930
tp41
tp42
a(S'929 CAYUGA AVE'
p43
(I1
I1
F1977.0
F3998.0
I1907
tp44
tp45
a(S'910 MANSELL ST'
p46
(I2
I1
F1647.0
F2500.0
I1963
tp47
tp48
a(S'1735 25TH AVE'
p49
(I1
I1
F1435.0
F2996.0
I1928
tp50
tp51
a(S'2451 17TH AVE'
p52
(I1
I1
F1732.0
F3000.0
I1926
tp53
tp54
a(S'766 31ST AVE'
p55
(I1
I1
F1535.0
F2996.0
I1926
tp56
tp57
a(S'268 COTTER ST'
p58
(I1
I1
F1280.0
F2495.0
I1914
tp59
tp60
a(S'723 BAY ST'
p61
(I1
I1
F0.0
F191.0
I1937
tp62
tp63
a(S'2676 23RD AVE'
p64
(I1
I1
F2548.0
F3297.0
I1926
tp65
tp66
a(S'6220 03RD ST'
p67
(I2
I2
F2240.0
F2709.0
I1916
tp68
tp69
a(S'468 OXFORD ST'
p70
(I1
I1
F1270.0
F2996.0
I1956
tp71
tp72
a(S'230 STATES ST'
p73
(I2
I2
F2200.0
F3125.0
I1900
tp74
tp75
a(S'829 FOLSOM ST'
p76
(I0
I0
F557.0
F0.0
I2010
tp77
tp78
a(S'709 25TH AVE'
p79
(I1
I1
F1560.0
F1764.0
I1922
tp80
tp81
a(S'1463 SILVER AVE'
p82
(I1
I1
F1300.0
F1875.0
I1951
tp83
tp84
a(S'606 11TH AVE'
p85
(I2
I1
F2340.0
F2375.0
I1915
tp86
tp87
a(S'838 34TH AVE'
p88
(I2
I1
F2492.0
F3600.0
I1921
tp89
tp90
a(S'2741 DIVISADERO ST'
p91
(I3
I1
F3960.0
F3023.0
I1914
tp92
tp93
a(S'1619 SHAFTER AVE'
p94
(I1
I1
F1016.0
F2500.0
I1915
tp95
tp96
a(S'4228 23RD ST'
p97
(I2
I1
F1100.0
F1376.0
I1908
tp98
tp99
a(S'563 37TH AVE'
p100
(I2
I2
F3608.0
F3000.0
I1985
tp101
tp102
a(S'2483 16TH AVE'
p103
(I2
I1
F2451.0
F2495.0
I1928
tp104
tp105
a(S'3560 BAKER ST'
p106
(I2
I1
F3144.0
F3898.0
I1929
tp107
tp108
a(S'2820 BROADWAY '
p109
(I3
I1
F8861.0
F8245.0
I1913
tp110
tp111
a(S'1249 SHAFTER AVE'
p112
(I1
I1
F740.0
F2500.0
I1900
tp113
tp114
a(S'1755 11TH AVE'
p115
(I1
I1
F1250.0
F3000.0
I1924
tp116
tp117
a(S'631 17TH AVE'
p118
(I2
I1
F1982.0
F2700.0
I1969
tp119
tp120
a(S'565 14TH ST'
p121
(I0
I1
F1019.0
F0.0
I1924
tp122
tp123
a(S'965 NORTH POINT ST'
p124
(I3
I4
F4140.0
F3432.0
I1913
tp125
tp126
a(S'2261 BUSH ST'
p127
(I2
I1
F1674.0
F0.0
I1991
tp128
tp129
a(S'743 17TH AVE'
p130
(I2
I1
F1800.0
F3000.0
I1921
tp131
tp132
a(S'101 18TH AVE'
p133
(I3
I9
F7980.0
F3249.0
I1915
tp134
tp135
a(S'2162 19TH AVE'
p136
(I2
I1
F1300.0
F2086.0
I1925
tp137
tp138
a(S'375 14TH ST'
p139
(I2
I16
F9284.0
F7200.0
I1925
tp140
tp141
a(S'2320 GEARY BLVD'
p142
(I3
I3
F2890.0
F2495.0
I1979
tp143
tp144
a(S'1166 SILVER AVE'
p145
(I1
I1
F1500.0
F2883.0
I1933
tp146
tp147
a(S'1262 15TH AVE'
p148
(I2
I2
F2432.0
F3187.5
I1923
tp149
tp150
a(S'1455 28TH AVE'
p151
(I2
I1
F3103.0
F3000.0
I1925
tp152
tp153
a(S'787 FAXON AVE'
p154
(I1
I1
F1280.0
F3227.0
I1923
tp155
tp156
a(S'301 MAIN ST'
p157
(I0
I0
F6307.0
F0.0
I2008
tp158
tp159
a(S'247 32ND AVE'
p160
(I2
I1
F2350.0
F3118.0
I1919
tp161
tp162
a(S'85 ARLETA AVE'
p163
(I1
I1
F750.0
F1873.0
I1916
tp164
tp165
a(S'44 HERNANDEZ AVE'
p166
(I2
I1
F1824.0
F3785.0
I1926
tp167
tp168
a(S'135 RED ROCK WAY'
p169
(I1
I1
F474.0
F0.0
I1972
tp170
tp171
a(S'66 PRETOR WAY'
p172
(I1
I1
F1303.0
F1790.0
I1959
tp173
tp174
a(S'0 UNKNOWN '
p175
(I0
I0
F0.0
F27965.0
I1900
tp176
tp177
a(S'1291 05TH AVE'
p178
(I2
I1
F2481.0
F2375.0
I1900
tp179
tp180
a(S'126 DOLORES ST'
p181
(I2
I1
F2280.0
F2352.0
I1925
tp182
tp183
a(S'154 BELVEDERE ST'
p184
(I0
I1
F2141.0
F0.0
I1908
tp185
tp186
a(S'1234 17TH AVE'
p187
(I1
I1
F1380.0
F3000.0
I1924
tp188
tp189
a(S'2739 38TH AVE'
p190
(I1
I1
F1214.0
F2996.0
I1948
tp191
tp192
a(S'869 HURON AVE'
p193
(I1
I1
F1329.0
F2456.0
I1947
tp194
tp195
a(S'863 CHURCH ST'
p196
(I4
I0
F2012.0
F2622.0
I1908
tp197
tp198
a(S'725 TEHAMA ST'
p199
(I3
I1
F1599.0
F0.0
I2000
tp200
tp201
a(S'194 FARALLONES ST'
p202
(I1
I1
F1597.0
F2062.5
I1988
tp203
tp204
a(S'135 23RD AVE'
p205
(I2
I1
F1828.0
F2996.0
I1910
tp206
tp207
a(S'1701 JACKSON ST'
p208
(I0
I1
F1072.0
F0.0
I2001
tp209
tp210
a(S'506 MOLIMO DR'
p211
(I1
I1
F1471.0
F2639.0
I1956
tp212
tp213
a(S'2600 18TH ST'
p214
(I3
I1
F1883.0
F0.0
I1999
tp215
tp216
a(S'2540 16TH AVE'
p217
(I1
I1
F2171.0
F3824.0
I1926
tp218
tp219
a(S'1630 JERROLD AVE'
p220
(I0
I0
F0.0
F2495.0
I0
tp221
tp222
a(S'2461 LOMBARD ST'
p223
(I2
I4
F4370.0
F3045.84
I1911
tp224
tp225
a(S'710 POWELL ST'
p226
(I0
I1
F0.0
F0.0
I0
tp227
tp228
a(S'1632 FULTON ST'
p229
(I1
I0
F1450.0
F0.0
I1874
tp230
tp231
a(S'1202 ARGUELLO BLVD'
p232
(I3
I3
F4725.0
F2404.0
I1912
tp233
tp234
a(S'1440 BROADWAY '
p235
(I1
I0
F757.0
F0.0
I1982
tp236
tp237
a(S'601 VAN NESS AVE'
p238
(I1
I1
F489.0
F0.0
I1982
tp239
tp240
a(S'2651 21ST AVE'
p241
(I1
I1
F1660.0
F2996.0
I1927
tp242
tp243
a(S'250 MAGELLAN AVE'
p244
(I2
I1
F1930.0
F3332.0
I1927
tp245
tp246
a(S'636 14TH ST'
p247
(I2
I2
F2394.0
F2232.0
I1990
tp248
tp249
a(S'1301 INDIANA ST'
p250
(I1
I0
F1373.0
F0.0
I2012
tp251
tp252
a(S'150 GENNESSEE ST'
p253
(I1
I1
F1526.0
F2495.0
I1923
tp254
tp255
a(S'1243 05TH AVE'
p256
(I0
I1
F2077.0
F0.0
I1997
tp257
tp258
a(S'1904 STEINER ST'
p259
(I1
I1
F1216.0
F0.0
I1991
tp260
tp261
a(S'2141 MARKET ST'
p262
(I2
I0
F0.0
F12120.0
I1923
tp263
tp264
a(S'855 PINE ST'
p265
(I4
I18
F18456.0
F6873.0
I1924
tp266
tp267
a(S'186 DUNCAN ST'
p268
(I2
I5
F4630.0
F2796.0
I1911
tp269
tp270
a(S'700 DIAMOND ST'
p271
(I3
I3
F4160.0
F1799.0
I1906
tp272
tp273
a(S'154 FUNSTON AVE'
p274
(I2
I2
F3230.0
F3000.0
I1915
tp275
tp276
a(S'1355 08TH AVE'
p277
(I2
I1
F1740.0
F3000.0
I1911
tp278
tp279
a(S'0 UNKNOWN '
p280
(I0
I0
F0.0
F27965.0
I1900
tp281
tp282
a(S'2462 41ST AVE'
p283
(I1
I1
F1321.0
F2996.0
I1945
tp284
tp285
a(S'441 MASON ST'
p286
(I0
I1
F0.0
F0.0
I0
tp287
tp288
a(S'550 SOUTH VAN NESS AVE'
p289
(I1
I1
F796.0
F0.0
I1992
tp290
tp291
a(S'131 FAIRMOUNT ST'
p292
(I1
I1
F1315.0
F2495.0
I1904
tp293
tp294
a(S'2757 GREEN ST'
p295
(I3
I1
F3400.0
F4673.0
I1912
tp296
tp297
a(S'2632 LAGUNA ST'
p298
(I3
I1
F2225.0
F0.0
I1900
tp299
tp300
a(S'1382 43RD AVE'
p301
(I1
I1
F800.0
F1437.0
I1946
tp302
tp303
a(S'1128 IRVING ST'
p304
(I2
I2
F1838.0
F2495.0
I1908
tp305
tp306
a(S'174 AMHERST ST'
p307
(I1
I1
F1425.0
F0.0
I1975
tp308
tp309
a(S'159 SADOWA ST'
p310
(I2
I1
F2250.0
F3125.0
I1908
tp311
tp312
a(S'935 FELL ST'
p313
(I2
I3
F4600.0
F4120.0
I1900
tp314
tp315
a(S'63 MADDUX AVE'
p316
(I1
I1
F1250.0
F2286.0
I1942
tp317
tp318
a(S'2183 40TH AVE'
p319
(I1
I1
F1214.0
F1746.0
I1947
tp320
tp321
a(S'83 BRITTON ST'
p322
(I1
I1
F1069.0
F1479.6
I1942
tp323
tp324
a(S'30 PATTON ST'
p325
(I1
I1
F1420.0
F2495.0
I1924
tp326
tp327
a(S'1520 SANCHEZ ST'
p328
(I2
I1
F2409.0
F2626.0
I1905
tp329
tp330
a(S'69 EDGAR AVE'
p331
(I1
I1
F1355.0
F2809.0
I1931
tp332
tp333
a(S'301 MISSION ST'
p334
(I0
I0
F1485.0
F0.0
I2009
tp335
tp336
a(S'2625 31ST AVE'
p337
(I1
I1
F1390.0
F2809.0
I1936
tp338
tp339
a(S'406 39TH AVE'
p340
(I1
I0
F1025.0
F0.0
I1904
tp341
tp342
a(S'1246 PALOU AVE'
p343
(I2
I1
F1704.0
F2495.0
I1947
tp344
tp345
a(S'56 BERNARD ST'
p346
(I2
I1
F2052.0
F1406.0
I1904
tp347
tp348
a(S'298 BERKELEY WAY'
p349
(I2
I1
F2000.0
F6303.0
I1974
tp350
tp351
a(S'337 GIRARD ST'
p352
(I1
I1
F1250.0
F2870.0
I1928
tp353
tp354
a(S'1924 ALEMANY BLVD'
p355
(I1
I1
F1325.0
F2077.0
I1941
tp356
tp357
a(S'952 SUTTER ST'
p358
(I6
I59
F42365.0
F10725.0
I1910
tp359
tp360
a(S'49 VERNON ST'
p361
(I1
I1
F1469.0
F3123.0
I1940
tp362
tp363
a(S'2445 GREENWICH ST'
p364
(I2
I3
F2416.0
F4486.63
I1925
tp365
tp366
a(S'486 VICTORIA ST'
p367
(I1
I1
F1320.0
F2200.0
I1946
tp368
tp369
a(S'936 DWIGHT ST'
p370
(I1
I1
F962.0
F2495.0
I1951
tp371
tp372
a(S'555 06TH AVE'
p373
(I1
I1
F1027.0
F3000.0
I1992
tp374
tp375
a(S'666 03RD AVE'
p376
(I2
I1
F1623.0
F2996.0
I1905
tp377
tp378
a(S'56 LAIDLEY ST'
p379
(I1
I1
F1943.0
F3293.0
I1908
tp380
tp381
a(S'57 MORNINGSIDE DR'
p382
(I1
I1
F1408.0
F3136.0
I1951
tp383
tp384
a(S'1641 GROVE ST'
p385
(I2
I3
F4900.0
F3436.0
I1900
tp386
tp387
a(S'536 DAY ST'
p388
(I1
I1
F925.0
F2850.0
I1912
tp389
tp390
a(S'2614 23RD AVE'
p391
(I1
I1
F1905.0
F3898.0
I1927
tp392
tp393
a(S'84 MARS ST'
p394
(I2
I0
F1703.0
F0.0
I2006
tp395
tp396
a(S'260 KING ST'
p397
(I0
I0
F688.0
F0.0
I2004
tp398
tp399
a(S'1422 GROVE ST'
p400
(I3
I9
F6965.0
F3437.5
I1898
tp401
tp402
a(S'555 VERMONT ST'
p403
(I1
I1
F1813.0
F2500.0
I1909
tp404
tp405
a(S'179 CASTRO ST'
p406
(I3
I6
F2832.0
F1800.0
I1906
tp407
tp408
a(S'36 NAHUA AVE'
p409
(I1
I1
F1250.0
F1999.0
I1940
tp410
tp411
a(S'135 LAKEVIEW AVE'
p412
(I1
I1
F1050.0
F2495.0
I1907
tp413
tp414
a(S'1040 FILBERT ST'
p415
(I1
I0
F1941.0
F0.0
I1924
tp416
tp417
a(S'1495 30TH AVE'
p418
(I1
I1
F1500.0
F2156.0
I1934
tp419
tp420
a(S'900 BUSH ST'
p421
(I0
I1
F1848.0
F0.0
I1982
tp422
tp423
a(S'231 MIRAMAR AVE'
p424
(I2
I1
F710.0
F2809.0
I1910
tp425
tp426
a(S'678 05TH AVE'
p427
(I2
I3
F2470.0
F3000.0
I1907
tp428
tp429
a(S'52 MANCHESTER ST'
p430
(I1
I3
F2700.0
F1999.0
I1903
tp431
tp432
a(S'966 CORBETT AVE'
p433
(I2
I1
F1177.0
F1751.0
I1946
tp434
tp435
a(S'1031 GUERRERO ST'
p436
(I2
I2
F2270.0
F2025.0
I1900
tp437
tp438
a(S'441 MASON ST'
p439
(I0
I1
F0.0
F0.0
I0
tp440
tp441
a(S'2365 FRANCISCO ST'
p442
(I2
I2
F3026.0
F3436.0
I1925
tp443
tp444
a(S'187 15TH AVE'
p445
(I2
I1
F2224.0
F2247.0
I1914
tp446
tp447
a(S'844 FOERSTER ST'
p448
(I1
I1
F1536.0
F2617.0
I1958
tp449
tp450
a(S'345 CHURCH ST'
p451
(I0
I1
F1128.0
F0.0
I1983
tp452
tp453
a(S'249 GOLD MINE DR'
p454
(I1
I1
F1860.0
F5466.0
I1966
tp455
tp456
a(S'45 JUNIPER ST'
p457
(I0
I1
F1480.0
F0.0
I2000
tp458
tp459
a(S'260 CALIFORNIA ST'
p460
(I11
I0
F63859.0
F5719.0
I1910
tp461
tp462
a(S'1340 SCOTT ST'
p463
(I0
I1
F825.0
F0.0
I1986
tp464
tp465
a(S'447 10TH AVE'
p466
(I2
I2
F2380.0
F2996.0
I1900
tp467
tp468
a(S'57 EDINBURGH ST'
p469
(I1
I1
F1400.0
F2495.0
I1974
tp470
tp471
a(S'68 BURLWOOD DR'
p472
(I2
I1
F1461.0
F5471.0
I1947
tp473
tp474
a(S'1030 LE CONTE AVE'
p475
(I2
I1
F0.0
F1913.68
I1988
tp476
tp477
a(S'1941 48TH AVE'
p478
(I1
I1
F1152.0
F1768.0
I1944
tp479
tp480
a(S'0 UNKNOWN '
p481
(I0
I0
F0.0
F27965.0
I1900
tp482
tp483
a(S'3408 CALIFORNIA ST'
p484
(I0
I1
F1151.0
F0.0
I1998
tp485
tp486
a(S'111 COLON AVE'
p487
(I1
I1
F1125.0
F3606.0
I1920
tp488
tp489
a(S'441 MASON ST'
p490
(I0
I1
F0.0
F0.0
I0
tp491
tp492
a(S'55 GRAND VIEW AVE'
p493
(I2
I1
F2315.0
F2147.0
I1946
tp494
tp495
a(S'599 MOULTRIE ST'
p496
(I2
I1
F1240.0
F1751.0
I1900
tp497
tp498
a(S'510 EUREKA ST'
p499
(I2
I1
F1170.0
F1777.0
I1914
tp500
tp501
a(S'3001 PINE ST'
p502
(I3
I7
F6775.0
F2186.0
I1904
tp503
tp504
a(S'930 PINE ST'
p505
(I1
I1
F715.0
F0.0
I1973
tp506
tp507
a(S'675 GRAND VIEW AVE'
p508
(I1
I0
F1623.0
F3123.0
I1956
tp509
tp510
a(S'1546 38TH AVE'
p511
(I1
I1
F1500.0
F2996.0
I1939
tp512
tp513
a(S'56 VAN BUREN ST'
p514
(I2
I1
F1375.0
F2374.0
I1912
tp515
tp516
a(S'401 ORIZABA AVE'
p517
(I1
I1
F1130.0
F2125.0
I1954
tp518
tp519
a(S'2618 GREENWICH ST'
p520
(I0
I0
F1439.0
F0.0
I1913
tp521
tp522
a(S'1921 OAKDALE AVE'
p523
(I0
I3
F1642.0
F2500.0
I1907
tp524
tp525
a(S'888 HURON AVE'
p526
(I1
I1
F1750.0
F2199.0
I1927
tp527
tp528
a(S'2440 PACIFIC AVE'
p529
(I3
I1
F12027.0
F8777.0
I1906
tp530
tp531
a(S'900 BUSH ST'
p532
(I0
I1
F1848.0
F0.0
I1982
tp533
tp534
a(S'1835 32ND AVE'
p535
(I1
I1
F1769.0
F2996.0
I1941
tp536
tp537
a(S'135 FARALLONES ST'
p538
(I1
I1
F896.0
F3123.0
I1912
tp539
tp540
a(S'2260 19TH AVE'
p541
(I1
I1
F1774.0
F2879.0
I1927
tp542
tp543
a(S'1456 VALLEJO ST'
p544
(I2
I8
F5546.0
F4521.0
I1961
tp545
tp546
a(S'718 BRUNSWICK ST'
p547
(I1
I1
F1300.0
F2766.0
I1950
tp548
tp549
a(S'2514 GREEN ST'
p550
(I3
I1
F3210.0
F3741.0
I1900
tp551
tp552
a(S'1573 CLAY ST'
p553
(I2
I1
F1800.0
F1873.0
I1907
tp554
tp555
a(S'550 DAVIS ST'
p556
(I0
I0
F87000.0
F83325.0
I1981
tp557
tp558
a(S'248 HARVARD ST'
p559
(I1
I1
F1295.0
F3000.0
I1941
tp560
tp561
a(S'574 FLOOD AVE'
p562
(I1
I1
F1175.0
F2809.0
I1963
tp563
tp564
a(S'150 LOMBARD ST'
p565
(I1
I1
F1211.0
F0.0
I1975
tp566
tp567
a(S'1771 27TH AVE'
p568
(I1
I1
F1695.0
F3000.0
I1939
tp569
tp570
a(S'2919 19TH AVE'
p571
(I2
I1
F3372.0
F6246.0
I1931
tp572
tp573
a(S'1410 25TH AVE'
p574
(I2
I2
F1750.0
F1437.5
I1944
tp575
tp576
a(S'2999 CALIFORNIA ST'
p577
(I1
I1
F989.0
F0.0
I1929
tp578
tp579
a(S'374 22ND AVE'
p580
(I2
I2
F3250.0
F3000.0
I1930
tp581
tp582
a(S'566 MIRAMAR AVE'
p583
(I1
I1
F1530.0
F3800.0
I1922
tp584
tp585
a(S'755 33RD AVE'
p586
(I1
I1
F1505.0
F2996.0
I1923
tp587
tp588
a(S'844 SUNNYDALE AVE'
p589
(I1
I1
F1982.0
F1796.22
I1960
tp590
tp591
a(S'165 WARREN DR'
p592
(I1
I1
F1570.0
F3667.0
I1958
tp593
tp594
a(S'5 CYRUS PL'
p595
(I2
I0
F1434.0
F0.0
I1902
tp596
tp597
a(S'375 WINFIELD ST'
p598
(I2
I1
F1150.0
F1794.0
I1908
tp599
tp600
a(S'188 KING ST'
p601
(I0
I1
F1915.0
F0.0
I2006
tp602
tp603
a(S'1822 39TH AVE'
p604
(I1
I1
F2145.0
F3000.0
I1942
tp605
tp606
a(S'657 FRANCISCO ST'
p607
(I0
I1
F2616.0
F0.0
I1992
tp608
tp609
a(S'1001 PLYMOUTH AVE'
p610
(I1
I1
F900.0
F1650.0
I1927
tp611
tp612
a(S'22 LAUREL ST'
p613
(I3
I1
F2558.0
F960.0
I1922
tp614
tp615
a(S'499 33RD AVE'
p616
(I0
I1
F722.0
F0.0
I2004
tp617
tp618
a(S'199 MARGARET AVE'
p619
(I2
I1
F2124.0
F2286.0
I1959
tp620
tp621
a(S'170 KING ST'
p622
(I0
I0
F475.0
F0.0
I2007
tp623
tp624
a(S'745 PACHECO ST'
p625
(I1
I1
F1828.0
F3924.0
I1956
tp626
tp627
a(S'312 CASELLI AVE'
p628
(I1
I1
F1125.0
F2225.0
I1893
tp629
tp630
a(S'318 SARGENT ST'
p631
(I1
I1
F950.0
F2495.0
I1954
tp632
tp633
a(S'3100 TARAVAL ST'
p634
(I2
I6
F4750.0
F2875.0
I1958
tp635
tp636
a(S'271 CONCORD ST'
p637
(I1
I1
F1325.0
F2996.0
I1959
tp638
tp639
a(S'2163 16TH AVE'
p640
(I1
I1
F1975.0
F2996.0
I1931
tp641
tp642
a(S'120 PARKER AVE'
p643
(I3
I12
F11850.0
F6067.0
I1932
tp644
tp645
a(S'2046 MARKET ST'
p646
(I0
I0
F0.0
F3232.0
I0
tp647
tp648
a(S'2401 27TH AVE'
p649
(I1
I3
F4354.0
F2435.0
I1910
tp650
tp651
a(S'250 EUREKA ST'
p652
(I2
I2
F1745.0
F3040.0
I1906
tp653
tp654
a(S'1507 23RD AVE'
p655
(I1
I1
F1350.0
F2060.0
I1939
tp656
tp657
a(S'788 ELIZABETH ST'
p658
(I2
I1
F1790.0
F2221.0
I1900
tp659
tp660
a(S'624 RHODE ISLAND ST'
p661
(I2
I1
F1200.0
F0.0
I1907
tp662
tp663
a(S'1455 TARAVAL ST'
p664
(I1
I0
F0.0
F3249.0
I1954
tp665
tp666
a(S'601 VAN NESS AVE'
p667
(I1
I1
F489.0
F0.0
I1982
tp668
tp669
a(S'120 SAN LEANDRO WAY'
p670
(I2
I1
F3169.0
F5031.0
I1925
tp671
tp672
a(S'170 NUEVA AVE'
p673
(I1
I1
F1275.0
F2500.0
I1940
tp674
tp675
a(S'330 10TH ST'
p676
(I2
I0
F33436.0
F33436.0
I1920
tp677
tp678
a(S'214 GOETTINGEN ST'
p679
(I1
I1
F1700.0
F2060.0
I1941
tp680
tp681
a(S'21 JUANITA WAY'
p682
(I1
I1
F1432.0
F2500.0
I1936
tp683
tp684
a(S'1235 MCALLISTER ST'
p685
(I0
I0
F1016.0
F0.0
I0
tp686
tp687
a(S'914 JUNIPERO SERRA BLVD'
p688
(I1
I1
F1749.0
F3693.0
I1941
tp689
tp690
a(S'64 NEWTON ST'
p691
(I1
I1
F1196.0
F2495.0
I1913
tp692
tp693
a(S'540 COLE ST'
p694
(I3
I6
F6150.0
F4373.0
I1911
tp695
tp696
a(S'2238 BUSH ST'
p697
(I0
I2
F3010.0
F1858.25
I1905
tp698
tp699
a(S'178 MAYNARD ST'
p700
(I1
I1
F1125.0
F2748.0
I1923
tp701
tp702
a(S'106 CAYUGA AVE'
p703
(I2
I1
F1650.0
F2500.0
I1911
tp704
tp705
a(S'4820 GEARY BLVD'
p706
(I3
I2
F2925.0
F2500.0
I1908
tp707
tp708
a(S'59 SEQUOIA WAY'
p709
(I1
I1
F1293.0
F2587.0
I1942
tp710
tp711
a(S'630 33RD AVE'
p712
(I2
I8
F4780.0
F3715.0
I1926
tp713
tp714
a(S'252 MISSOURI ST'
p715
(I2
I0
F1859.0
F0.0
I1908
tp716
tp717
a(S'170 VIENNA ST'
p718
(I1
I1
F700.0
F2495.0
I1917
tp719
tp720
a(S'1150 DOLORES ST'
p721
(I1
I1
F771.0
F396.0
I1929
tp722
tp723
a(S'1532 10TH AVE'
p724
(I2
I4
F4016.0
F2996.0
I1960
tp725
tp726
a(S'5033 CALIFORNIA ST'
p727
(I2
I2
F2714.0
F2495.0
I1922
tp728
tp729
a(S'23 MONTCALM ST'
p730
(I2
I1
F2190.0
F1875.0
I1906
tp731
tp732
a(S'705 LA PLAYA '
p733
(I0
I1
F1579.0
F0.0
I2002
tp734
tp735
a(S'204 DOWNEY ST'
p736
(I3
I3
F3040.0
F1999.0
I1900
tp737
tp738
a(S'95 DENSLOWE DR'
p739
(I2
I1
F1787.0
F3602.0
I1941
tp740
tp741
a(S'326 BRANNAN ST'
p742
(I1
I0
F1033.0
F2099.0
I1959
tp743
tp744
a(S'3057 25TH ST'
p745
(I1
I0
F905.0
F0.0
I1937
tp746
tp747
a(S'490 POST ST'
p748
(I17
I0
F970.0
F0.0
I1925
tp749
tp750
a(S'16 VISTA VERDE CT'
p751
(I2
I1
F2686.0
F2800.0
I1977
tp752
tp753
a(S'2510 PHELPS ST'
p754
(I1
I1
F1380.0
F1663.0
I1965
tp755
tp756
a(S'695 33RD AVE'
p757
(I2
I5
F4466.0
F3250.0
I1970
tp758
tp759
a(S'762 SWEENY ST'
p760
(I1
I1
F994.0
F2950.0
I1944
tp761
tp762
a(S'1134 WAYLAND ST'
p763
(I1
I1
F1050.0
F2874.0
I1951
tp764
tp765
a(S'543 LAKEVIEW AVE'
p766
(I1
I1
F1100.0
F2500.0
I1938
tp767
tp768
a(S'720 YORK ST'
p769
(I2
I1
F557.0
F0.0
I1999
tp770
tp771
a(S'1222 21ST AVE'
p772
(I2
I4
F3730.0
F2996.0
I1964
tp773
tp774
a(S'1244 HOLLISTER AVE'
p775
(I1
I1
F2188.0
F2500.0
I1964
tp776
tp777
a(S'1325 DIVISADERO ST'
p778
(I0
I1
F605.0
F0.0
I1925
tp779
tp780
a(S'840 LISBON ST'
p781
(I2
I1
F2833.0
F2504.0
I1916
tp782
tp783
a(S'2560 MARIN ST'
p784
(I2
I0
F5943.0
F15768.0
I0
tp785
tp786
a(S'161 BANKS ST'
p787
(I2
I1
F1625.0
F1746.0
I1913
tp788
tp789
a(S'2722 38TH AVE'
p790
(I1
I1
F1190.0
F2996.0
I1947
tp791
tp792
a(S'620 NIAGARA AVE'
p793
(I1
I1
F1150.0
F1955.0
I1941
tp794
tp795
a(S'2731 GEARY BLVD'
p796
(I2
I4
F3180.0
F3125.0
I1900
tp797
tp798
a(S'3648 22ND ST'
p799
(I2
I1
F2408.0
F2857.0
I1925
tp800
tp801
a(S'1723 LYON ST'
p802
(I2
I4
F3916.0
F2500.0
I1902
tp803
tp804
a(S'22 MARGRAVE PL'
p805
(I3
I8
F4676.0
F2217.0
I1910
tp806
tp807
a(S'2355 43RD AVE'
p808
(I1
I1
F1162.0
F3000.0
I1946
tp809
tp810
a(S'1738 LA SALLE AVE'
p811
(I1
I1
F1592.0
F2500.0
I1900
tp812
tp813
a(S'225 VICTORIA ST'
p814
(I1
I1
F1000.0
F2495.0
I1940
tp815
tp816
a(S'1027 BOWDOIN ST'
p817
(I1
I1
F2200.0
F3000.0
I1986
tp818
tp819
a(S'1580 FOLSOM ST'
p820
(I2
I0
F2922.0
F2100.0
I1948
tp821
tp822
a(S'25 MONTCLAIR TER'
p823
(I3
I1
F3392.0
F2970.0
I1937
tp824
tp825
a(S'381 11TH ST'
p826
(I2
I0
F0.0
F2495.0
I1953
tp827
tp828
a(S'2542 SACRAMENTO ST'
p829
(I1
I1
F1106.0
F0.0
I1964
tp830
tp831
a(S'536 LIBERTY ST'
p832
(I1
I1
F1624.0
F2850.0
I1897
tp833
tp834
a(S'721 FILBERT ST'
p835
(I2
I0
F21552.0
F10973.88
I1907
tp836
tp837
a(S'1341 VALLEJO ST'
p838
(I0
I0
F1816.0
F0.0
I1909
tp839
tp840
a(S'20 SAN PABLO AVE'
p841
(I1
I1
F1677.0
F4800.0
I1925
tp842
tp843
a(S'710 POWELL ST'
p844
(I0
I1
F0.0
F0.0
I0
tp845
tp846
a(S'445 ARGUELLO BLVD'
p847
(I3
I1
F1253.0
F0.0
I1998
tp848
tp849
a(S'130 SAINT CHARLES AVE'
p850
(I1
I1
F1050.0
F3497.0
I1938
tp851
tp852
a(S'351 VALENCIA ST'
p853
(I2
I0
F14170.0
F7165.0
I1922
tp854
tp855
a(S'370 RALSTON ST'
p856
(I1
I1
F1237.0
F2495.0
I1947
tp857
tp858
a(S'351 15TH AVE'
p859
(I1
I1
F2480.0
F2996.0
I1922
tp860
tp861
a(S'1036 MUNICH ST'
p862
(I1
I1
F1138.0
F2352.0
I1925
tp863
tp864
a(S'355 01ST ST'
p865
(I0
I0
F1408.0
F0.0
I2004
tp866
tp867
a(S'1163 HARRISON ST'
p868
(I2
I2
F1750.0
F1197.0
I1910
tp869
tp870
a(S'441 MASON ST'
p871
(I0
I1
F0.0
F0.0
I0
tp872
tp873
a(S'146 GAVEN ST'
p874
(I1
I1
F1088.0
F1820.0
I1943
tp875
tp876
a(S'475 CRESTLAKE DR'
p877
(I1
I1
F2664.0
F4730.0
I1948
tp878
tp879
a(S'250 KING ST'
p880
(I0
I0
F688.0
F0.0
I2004
tp881
tp882
a(S'355 BRYANT ST'
p883
(I4
I1
F1565.0
F0.0
I1992
tp884
tp885
a(S'2289 25TH AVE'
p886
(I1
I1
F1300.0
F1920.5
I1937
tp887
tp888
a(S'27 WINDING WAY'
p889
(I1
I1
F1100.0
F3449.0
I1923
tp890
tp891
a(S'616 RIVERA ST'
p892
(I2
I1
F1530.0
F2280.0
I1936
tp893
tp894
a(S'675 TENNESSEE ST'
p895
(I0
I1
F1107.0
F0.0
I1997
tp896
tp897
a(S'1330 31ST AVE'
p898
(I2
I3
F3515.0
F3000.0
I1947
tp899
tp900
a(S'154 WILSON ST'
p901
(I1
I1
F1095.0
F2387.0
I1959
tp902
tp903
a(S'2211 CALIFORNIA ST'
p904
(I1
I1
F624.0
F0.0
I1911
tp905
tp906
a(S'141 BROMPTON AVE'
p907
(I2
I1
F1998.0
F0.0
I1909
tp908
tp909
a(S'254 17TH AVE'
p910
(I2
I2
F3340.0
F2996.0
I1921
tp911
tp912
a(S'1070 INGERSON AVE'
p913
(I1
I1
F1807.0
F2600.0
I1948
tp914
tp915
a(S'2619 QUINTARA ST'
p916
(I1
I1
F1250.0
F2500.0
I1940
tp917
tp918
a(S'454 MANGELS AVE'
p919
(I1
I1
F1171.0
F2495.0
I1930
tp920
tp921
a(S'1 BLUXOME ST'
p922
(I2
I0
F2300.0
F0.0
I2003
tp923
tp924
a(S'134 HARKNESS AVE'
p925
(I2
I1
F2500.0
F2450.0
I1927
tp926
tp927
a(S'601 04TH ST'
p928
(I0
I0
F0.0
F2135.38
I0
tp929
tp930
a(S'2118 SUTTER ST'
p931
(I2
I3
F4400.0
F2748.0
I1900
tp932
tp933
a(S'1474 PALOU AVE'
p934
(I1
I1
F1460.0
F2495.0
I1926
tp935
tp936
a(S'1800 BRYANT ST'
p937
(I0
I1
F1122.0
F0.0
I2000
tp938
tp939
a(S'101 UTAH ST'
p940
(I2
I0
F56479.0
F39350.0
I1957
tp941
tp942
a(S'3050 22ND ST'
p943
(I3
I6
F8607.0
F3184.0
I1908
tp944
tp945
a(S'1930 SACRAMENTO ST'
p946
(I4
I18
F19668.0
F6891.0
I1924
tp947
tp948
a(S'583 35TH AVE'
p949
(I1
I1
F1042.0
F2495.0
I1922
tp950
tp951
a(S'1736 NOE ST'
p952
(I1
I1
F984.0
F2099.0
I1918
tp953
tp954
a(S'879 RHODE ISLAND ST'
p955
(I2
I0
F2385.0
F0.0
I2004
tp956
tp957
a(S'1742 FELL ST'
p958
(I1
I1
F1917.0
F0.0
I1890
tp959
tp960
a(S'1 HELENA ST'
p961
(I0
I0
F0.0
F2500.0
I0
tp962
tp963
a(S'1259 37TH AVE'
p964
(I2
I1
F2172.0
F3000.0
I1912
tp965
tp966
a(S'182 CASTRO ST'
p967
(I2
I3
F4065.0
F2996.0
I1900
tp968
tp969
a(S'80 SANTA YSABEL AVE'
p970
(I1
I1
F1281.0
F3123.0
I1921
tp971
tp972
a(S'710 POWELL ST'
p973
(I0
I1
F0.0
F0.0
I0
tp974
tp975
a(S'1040 HURON AVE'
p976
(I2
I1
F2430.0
F2587.5
I1912
tp977
tp978
a(S'68 CIELITO DR'
p979
(I1
I1
F1403.0
F1999.0
I1944
tp980
tp981
a(S'23 LOS PALMOS DR'
p982
(I1
I1
F1157.0
F2996.0
I1953
tp983
tp984
a(S'5600 03RD ST'
p985
(I1
I0
F2901.0
F0.0
I2010
tp986
tp987
a(S'489 JUSTIN DR'
p988
(I1
I1
F1510.0
F0.0
I1977
tp989
tp990
a(S'164 JULES AVE'
p991
(I1
I1
F825.0
F2809.0
I1924
tp992
tp993
a(S'1220 NOE ST'
p994
(I0
I0
F0.0
F127678.0
I1900
tp995
tp996
a(S'164 FARALLONES ST'
p997
(I1
I1
F1036.0
F3125.0
I1924
tp998
tp999
a(S'177 17TH AVE'
p1000
(I0
I0
F2083.0
F0.0
I1914
tp1001
tp1002
a(S'3153 PACIFIC AVE'
p1003
(I3
I1
F4959.0
F3828.0
I1912
tp1004
tp1005
a(S'3950 03RD ST'
p1006
(I0
I0
F0.0
F11633.0
I0
tp1007
tp1008
a(S'33 HAIGHT ST'
p1009
(I0
I0
F1104.0
F0.0
I2000
tp1010
tp1011
a(S'470 BAY SHORE BLVD'
p1012
(I1
I4
F20400.0
F35768.0
I1937
tp1013
tp1014
a(S'670 45TH AVE'
p1015
(I2
I1
F1616.0
F4500.0
I1916
tp1016
tp1017
a(S'232 SCOTT ST'
p1018
(I2
I4
F3736.0
F2652.0
I1924
tp1019
tp1020
a(S'1564 18TH AVE'
p1021
(I1
I1
F1255.0
F5000.0
I1928
tp1022
tp1023
a(S'105 TRUMBULL ST'
p1024
(I2
I1
F1365.0
F3271.0
I1905
tp1025
tp1026
a(S'763 UNIVERSITY ST'
p1027
(I1
I1
F2057.0
F2996.0
I1963
tp1028
tp1029
a(S'1918 21ST AVE'
p1030
(I1
I1
F1335.0
F2979.0
I1940
tp1031
tp1032
a(S'3722 CABRILLO ST'
p1033
(I2
I2
F2300.0
F3000.0
I1947
tp1034
tp1035
a(S'2906 BUCHANAN ST'
p1036
(I2
I2
F2112.0
F1873.0
I1900
tp1037
tp1038
a(S'151 ALICE B TOKLAS PL'
p1039
(I8
I1
F1376.0
F0.0
I1920
tp1040
tp1041
a(S'1915 35TH AVE'
p1042
(I1
I1
F800.0
F1750.0
I1943
tp1043
tp1044
a(S'3969 17TH ST'
p1045
(I3
I6
F5400.0
F2461.0
I1900
tp1046
tp1047
a(S'664 MISSOURI ST'
p1048
(I0
I1
F1284.0
F0.0
I1983
tp1049
tp1050
a(S'1667 JERROLD AVE'
p1051
(I1
I1
F1000.0
F2500.0
I1900
tp1052
tp1053
a(S'555 04TH ST'
p1054
(I0
I0
F694.0
F0.0
I0
tp1055
tp1056
a(S'28 MIGUEL ST'
p1057
(I4
I0
F4212.0
F0.0
I2004
tp1058
tp1059
a(S'2527 27TH AVE'
p1060
(I1
I1
F1060.0
F2996.0
I1906
tp1061
tp1062
a(S'32 DIVISADERO ST'
p1063
(I2
I1
F2088.0
F2404.0
I1907
tp1064
tp1065
a(S'1035 GILMAN AVE'
p1066
(I2
I0
F0.0
F61916.0
I1952
tp1067
tp1068
a(S'1737 SILLIMAN ST'
p1069
(I2
I1
F2400.0
F2500.0
I1992
tp1070
tp1071
a(S'562 MANGELS AVE'
p1072
(I1
I1
F1162.0
F2495.0
I1962
tp1073
tp1074
a(S'3224 JUDAH ST'
p1075
(I2
I8
F7140.0
F4996.0
I1960
tp1076
tp1077
a(S'171 GOLD MINE DR'
p1078
(I1
I1
F1799.0
F3297.0
I1966
tp1079
tp1080
a(S'2400 19TH AVE'
p1081
(I1
I1
F2227.0
F2500.0
I1975
tp1082
tp1083
a(S'2832 JACKSON ST'
p1084
(I3
I1
F4646.0
F4070.44
I1908
tp1085
tp1086
a(S'3053 SACRAMENTO ST'
p1087
(I2
I11
F5850.0
F3645.0
I1906
tp1088
tp1089
a(S'1555 19TH AVE'
p1090
(I2
I2
F2810.0
F2996.0
I1925
tp1091
tp1092
a(S'37 GUERRERO ST'
p1093
(I3
I4
F5015.0
F1999.0
I1910
tp1094
tp1095
a(S'1336 RHODE ISLAND ST'
p1096
(I1
I1
F2242.0
F2495.0
I1934
tp1097
tp1098
a(S'117 ASHTON AVE'
p1099
(I1
I1
F825.0
F2121.0
I1924
tp1100
tp1101
a(S'1427 37TH AVE'
p1102
(I1
I1
F1500.0
F3250.0
I1938
tp1103
tp1104
a(S'1839 09TH AVE'
p1105
(I2
I2
F2820.0
F2996.0
I1962
tp1106
tp1107
a(S'367 CUMBERLAND ST'
p1108
(I2
I1
F2765.0
F2850.0
I1907
tp1109
tp1110
a(S'650 TURK ST'
p1111
(I9
I0
F891.0
F0.0
I2008
tp1112
tp1113
a(S'0 UNKNOWN '
p1114
(I0
I0
F0.0
F27965.0
I1900
tp1115
tp1116
a(S'322 06TH ST'
p1117
(I0
I1
F1842.0
F0.0
I2001
tp1118
tp1119
a(S'1 DANIEL BURNHAM CT'
p1120
(I16
I1
F879.0
F0.0
I1988
tp1121
tp1122
a(S'117 18TH AVE'
p1123
(I2
I3
F3633.0
F2996.0
I1913
tp1124
tp1125
a(S'262 CASTRO ST'
p1126
(I1
I1
F848.0
F3360.0
I1906
tp1127
tp1128
a(S'0 UNKNOWN '
p1129
(I0
I0
F0.0
F27965.0
I1900
tp1130
tp1131
a(S'191 MELROSE AVE'
p1132
(I1
I1
F1225.0
F2495.0
I1958
tp1133
tp1134
a(S'1150 LOMBARD ST'
p1135
(I0
I1
F2066.0
F0.0
I1989
tp1136
tp1137
a(S'400 BEALE ST'
p1138
(I0
I0
F1215.0
F0.0
I2001
tp1139
tp1140
a(S'2150 SLOAT BLVD'
p1141
(I1
I1
F1037.0
F2103.0
I1949
tp1142
tp1143
a(S'250 BANKS ST'
p1144
(I1
I1
F1488.0
F1750.0
I1908
tp1145
tp1146
a(S'1160 MISSION ST'
p1147
(I0
I0
F756.0
F0.0
I2008
tp1148
tp1149
a(S'68 LOIS LN'
p1150
(I2
I1
F1850.0
F1292.0
I1997
tp1151
tp1152
a(S'3440 SCOTT ST'
p1153
(I2
I2
F3000.0
F2508.25
I1925
tp1154
tp1155
a(S'340 GREEN ST'
p1156
(I1
I1
F935.0
F0.0
I1922
tp1157
tp1158
a(S'77 GRAND VIEW AVE'
p1159
(I2
I1
F900.0
F0.0
I1977
tp1160
tp1161
a(S'2787 CLAY ST'
p1162
(I3
I2
F2950.0
F2495.0
I1900
tp1163
tp1164
a(S'1 DANIEL BURNHAM CT'
p1165
(I16
I1
F879.0
F0.0
I1988
tp1166
tp1167
a(S'2323 37TH AVE'
p1168
(I1
I1
F1350.0
F3000.0
I1939
tp1169
tp1170
a(S'850 FRANCISCO ST'
p1171
(I3
I1
F3721.0
F6185.0
I1910
tp1172
tp1173
a(S'1701 SILVER AVE'
p1174
(I2
I1
F1245.0
F810.0
I1925
tp1175
tp1176
a(S'485 MONTICELLO ST'
p1177
(I1
I1
F1725.0
F5323.0
I1927
tp1178
tp1179
a(S'860 MOULTRIE ST'
p1180
(I2
I1
F1800.0
F1790.0
I1908
tp1181
tp1182
a(S'2208 MISSION ST'
p1183
(I5
I0
F1521.0
F13600.0
I2009
tp1184
tp1185
a(S'1763 40TH AVE'
p1186
(I1
I1
F2328.0
F3000.0
I1941
tp1187
tp1188
a(S'140 WINFIELD ST'
p1189
(I1
I2
F2157.0
F1746.0
I1900
tp1190
tp1191
a(S'224 05TH ST'
p1192
(I0
I0
F0.0
F5174.0
I0
tp1193
tp1194
a(S'95 RED ROCK WAY'
p1195
(I1
I1
F474.0
F0.0
I1972
tp1196
tp1197
a(S'683 28TH AVE'
p1198
(I2
I2
F2640.0
F2060.0
I1924
tp1199
tp1200
a(S'150 BRIGHT ST'
p1201
(I1
I1
F1050.0
F2500.0
I1947
tp1202
tp1203
a(S'953 BRODERICK ST'
p1204
(I2
I2
F3160.0
F2295.0
I1926
tp1205
tp1206
a(S'21 ALTA ST'
p1207
(I3
I3
F2040.0
F1331.28
I1977
tp1208
tp1209
a(S'847 24TH AVE'
p1210
(I1
I1
F1431.0
F2996.0
I1923
tp1211
tp1212
a(S'2702 CALIFORNIA ST'
p1213
(I3
I2
F5926.0
F3801.0
I1900
tp1214
tp1215
a(S'2278 39TH AVE'
p1216
(I1
I1
F1628.0
F3000.0
I1947
tp1217
tp1218
a(S'2849 SAN BRUNO AVE'
p1219
(I1
I1
F1200.0
F2250.0
I1923
tp1220
tp1221
a(S'1472 YORK ST'
p1222
(I2
I1
F1505.0
F2500.0
I1916
tp1223
tp1224
a(S'1638 24TH AVE'
p1225
(I1
I1
F1525.0
F3000.0
I1927
tp1226
tp1227
a(S'631 OFARRELL ST'
p1228
(I19
I1
F610.0
F0.0
I1930
tp1229
tp1230
a(S'429 COLON AVE'
p1231
(I1
I1
F2170.0
F4046.0
I1926
tp1232
tp1233
a(S'454 ELLINGTON AVE'
p1234
(I1
I1
F1275.0
F2500.0
I1927
tp1235
tp1236
a(S'1594 41ST AVE'
p1237
(I1
I1
F1886.0
F2247.0
I1973
tp1238
tp1239
a(S'386 30TH AVE'
p1240
(I2
I1
F1888.0
F1875.0
I1916
tp1241
tp1242
a(S'1645 18TH ST'
p1243
(I0
I1
F1057.0
F0.0
I1995
tp1244
tp1245
a(S'157 WARREN DR'
p1246
(I1
I1
F1408.0
F3297.0
I1958
tp1247
tp1248
a(S'860 GEARY ST'
p1249
(I6
I41
F25284.0
F6531.25
I1913
tp1250
tp1251
a(S'2919 23RD ST'
p1252
(I0
I1
F2088.0
F0.0
I2001
tp1253
tp1254
a(S'655 ANDOVER ST'
p1255
(I1
I1
F1125.0
F1751.0
I1926
tp1256
tp1257
a(S'602 SHOTWELL ST'
p1258
(I0
I0
F895.0
F0.0
I1900
tp1259
tp1260
a(S'44 MACONDRAY LN'
p1261
(I0
I1
F2100.0
F0.0
I1980
tp1262
tp1263
a(S'725 VISITACION AVE'
p1264
(I1
I1
F1000.0
F1873.0
I1939
tp1265
tp1266
a(S'535 17TH AVE'
p1267
(I2
I1
F1900.0
F2996.0
I1914
tp1268
tp1269
a(S'2371 33RD AVE'
p1270
(I1
I1
F1603.0
F3000.0
I1951
tp1271
tp1272
a(S'500 MASONIC AVE'
p1273
(I2
I1
F1024.0
F0.0
I2001
tp1274
tp1275
a(S'50 DUBOCE AVE'
p1276
(I0
I0
F0.0
F33223.0
I0
tp1277
tp1278
a(S'3850 WASHINGTON ST'
p1279
(I2
I1
F4626.0
F7533.71
I1924
tp1280
tp1281
a(S'650 CHESTNUT ST'
p1282
(I0
I1
F1188.0
F0.0
I1995
tp1283
tp1284
a(S'1990 GREEN ST'
p1285
(I1
I1
F690.0
F0.0
I1926
tp1286
tp1287
a(S'1650 JACKSON ST'
p1288
(I1
I0
F1885.0
F0.0
I1991
tp1289
tp1290
a(S'634 42ND AVE'
p1291
(I0
I0
F0.0
F2696.0
I0
tp1292
tp1293
a(S'48 FAIRFIELD WAY'
p1294
(I1
I1
F2105.0
F3184.0
I1928
tp1295
tp1296
a(S'2806 DIAMOND ST'
p1297
(I2
I3
F4364.0
F4573.0
I1890
tp1298
tp1299
a(S'36 DEARBORN ST'
p1300
(I0
I1
F861.0
F0.0
I1907
tp1301
tp1302
a(S'1520 KIRKWOOD AVE'
p1303
(I1
I1
F2346.0
F2495.0
I1900
tp1304
tp1305
a(S'744 CHURCH ST'
p1306
(I1
I0
F1280.0
F0.0
I1920
tp1307
tp1308
a(S'350 DAY ST'
p1309
(I1
I1
F918.0
F2848.0
I1900
tp1310
tp1311
a(S'4105 19TH ST'
p1312
(I2
I9
F0.0
F4277.0
I1904
tp1313
tp1314
a(S'1939 MISSION ST'
p1315
(I3
I2
F16200.0
F6125.0
I1908
tp1316
tp1317
a(S'1354 HAYES ST'
p1318
(I1
I1
F3882.0
F4967.0
I1915
tp1319
tp1320
a(S'1315 43RD AVE'
p1321
(I1
I1
F1375.0
F2374.0
I1932
tp1322
tp1323
a(S'35 BORICA ST'
p1324
(I1
I1
F1500.0
F5845.0
I1923
tp1325
tp1326
a(S'2062 15TH AVE'
p1327
(I1
I1
F1781.0
F4095.0
I1946
tp1328
tp1329
a(S'842 34TH AVE'
p1330
(I1
I1
F1750.0
F2996.0
I1915
tp1331
tp1332
a(S'155 LOWER TER'
p1333
(I1
I1
F1300.0
F2269.0
I1924
tp1334
tp1335
a(S'3840 21ST ST'
p1336
(I0
I0
F1538.0
F0.0
I1905
tp1337
tp1338
a(S'956 MISSION ST'
p1339
(I3
I3
F23720.0
F11857.0
I1910
tp1340
tp1341
a(S'67 NAVAJO AVE'
p1342
(I1
I1
F990.0
F2186.0
I1930
tp1343
tp1344
a(S'286 MAYNARD ST'
p1345
(I1
I1
F687.0
F2750.0
I1939
tp1346
tp1347
a(S'65 NORFOLK ST'
p1348
(I0
I1
F1084.0
F0.0
I1993
tp1349
tp1350
a(S'4263 22ND ST'
p1351
(I2
I2
F2300.0
F2848.0
I1900
tp1352
tp1353
a(S'281 PAGE ST'
p1354
(I0
I0
F0.0
F6599.0
I0
tp1355
tp1356
a(S'357 IRVING ST'
p1357
(I2
I1
F3323.0
F2374.0
I1909
tp1358
tp1359
a(S'364 ARGUELLO BLVD'
p1360
(I2
I2
F3876.0
F2996.0
I1917
tp1361
tp1362
a(S'2120 29TH AVE'
p1363
(I1
I1
F1162.0
F3000.0
I1946
tp1364
tp1365
a(S'2428 BAY SHORE BLVD'
p1366
(I1
I0
F1027.0
F0.0
I2005
tp1367
tp1368
a(S'2958 SLOAT BLVD'
p1369
(I2
I1
F2393.0
F0.0
I1997
tp1370
tp1371
a(S'1275 CHURCH ST'
p1372
(I2
I1
F1870.0
F2850.0
I1906
tp1373
tp1374
a(S'2323 JONES ST'
p1375
(I2
I3
F2668.0
F4469.0
I1921
tp1376
tp1377
a(S'1182 PACIFIC AVE'
p1378
(I1
I1
F1128.0
F1479.0
I1924
tp1379
tp1380
a(S'1514 30TH AVE'
p1381
(I1
I1
F1705.0
F2683.0
I1935
tp1382
tp1383
a(S'668 04TH AVE'
p1384
(I2
I4
F2464.0
F3000.0
I1905
tp1385
tp1386
a(S'2018 POWELL ST'
p1387
(I2
I2
F2244.0
F2178.0
I1925
tp1388
tp1389
a(S'368 ROLPH ST'
p1390
(I1
I1
F937.0
F2034.0
I1913
tp1391
tp1392
a(S'1610 LOMBARD ST'
p1393
(I3
I12
F8463.0
F4468.75
I1927
tp1394
tp1395
a(S'683 SAN JOSE AVE'
p1396
(I2
I1
F1366.0
F1833.0
I1900
tp1397
tp1398
a(S'1406 23RD AVE'
p1399
(I2
I2
F2712.0
F1624.0
I1936
tp1400
tp1401
a(S'1301 HAMPSHIRE ST'
p1402
(I2
I4
F3404.0
F2347.0
I1927
tp1403
tp1404
a(S'71 ROCKWOOD CT'
p1405
(I1
I1
F2034.0
F2735.0
I1941
tp1406
tp1407
a(S'2546 03RD ST'
p1408
(I3
I0
F1555.0
F0.0
I2002
tp1409
tp1410
a(S'221 SARGENT ST'
p1411
(I1
I1
F1144.0
F2495.0
I1954
tp1412
tp1413
a(S'106 SATURN ST'
p1414
(I2
I1
F1915.0
F2949.0
I1907
tp1415
tp1416
a(S'226 MORSE ST'
p1417
(I1
I1
F1396.0
F3854.23
I1925
tp1418
tp1419
a(S'16 LEROY PL'
p1420
(I2
I1
F1828.0
F0.0
I1988
tp1421
tp1422
a(S'255 WESTGATE DR'
p1423
(I1
I1
F2700.0
F3711.0
I1932
tp1424
tp1425
a(S'1830 FILLMORE ST'
p1426
(I0
I1
F896.0
F0.0
I1984
tp1427
tp1428
a(S'74 NEW MONTGOMERY ST'
p1429
(I7
I0
F651.0
F0.0
I1914
tp1430
tp1431
a(S'454 LOMBARD ST'
p1432
(I1
I1
F700.0
F0.0
I1974
tp1433
tp1434
a(S'3111 ANZA ST'
p1435
(I2
I4
F3406.0
F2495.0
I1969
tp1436
tp1437
a(S'2 CASTRO ST'
p1438
(I3
I8
F7500.0
F2678.0
I1962
tp1439
tp1440
a(S'743 33RD AVE'
p1441
(I1
I1
F2472.0
F2996.0
I1924
tp1442
tp1443
a(S'714 CAYUGA AVE'
p1444
(I1
I1
F1056.0
F3184.0
I1931
tp1445
tp1446
a(S'2094 MISSION ST'
p1447
(I3
I3
F5290.0
F1925.0
I1906
tp1448
tp1449
a(S'175 BRIGHTON AVE'
p1450
(I1
I1
F1185.0
F2825.0
I1925
tp1451
tp1452
a(S'29 WOODLAND AVE'
p1453
(I2
I1
F1980.0
F1999.0
I1908
tp1454
tp1455
a(S'3522 GEARY BLVD'
p1456
(I2
I6
F3524.0
F2996.0
I1955
tp1457
tp1458
a(S'789 37TH AVE'
p1459
(I2
I1
F1670.0
F2996.0
I1925
tp1460
tp1461
a(S'835 HOWARD ST'
p1462
(I3
I0
F34963.0
F8280.1
I1907
tp1463
tp1464
a(S'4166 17TH ST'
p1465
(I1
I0
F864.0
F2507.18
I1904
tp1466
tp1467
a(S'230 OXFORD ST'
p1468
(I1
I1
F1275.0
F3000.0
I1940
tp1469
tp1470
a(S'260 KING ST'
p1471
(I0
I0
F688.0
F0.0
I2004
tp1472
tp1473
a(S'111 YALE ST'
p1474
(I1
I1
F1184.0
F0.0
I1975
tp1475
tp1476
a(S'262 TINGLEY ST'
p1477
(I1
I1
F925.0
F2221.0
I1912
tp1478
tp1479
a(S'631 OFARRELL ST'
p1480
(I19
I1
F610.0
F0.0
I1930
tp1481
tp1482
a(S'2707 SACRAMENTO ST'
p1483
(I3
I8
F4355.0
F3728.0
I1900
tp1484
tp1485
a(S'464 47TH AVE'
p1486
(I1
I1
F1284.0
F2227.5
I1940
tp1487
tp1488
a(S'1222 SUTTER ST'
p1489
(I2
I2
F6570.0
F3284.0
I1916
tp1490
tp1491
a(S'279 23RD AVE'
p1492
(I1
I2
F2974.0
F3000.0
I1912
tp1493
tp1494
a(S'855 FOLSOM ST'
p1495
(I0
I1
F838.0
F0.0
I2001
tp1496
tp1497
a(S'2417 BRYANT ST'
p1498
(I0
I0
F1127.0
F0.0
I1921
tp1499
tp1500
a(S'1043 FRANCISCO ST'
p1501
(I2
I2
F4014.0
F4726.0
I1952
tp1502
tp1503
a(S'140 UPPER TER'
p1504
(I2
I1
F2440.0
F3171.0
I1913
tp1505
tp1506
a(S'1767 CHURCH ST'
p1507
(I2
I2
F3285.0
F1650.0
I1928
tp1508
tp1509
a(S'436 BRUSSELS ST'
p1510
(I2
I1
F961.0
F6000.0
I1914
tp1511
tp1512
a(S'55 ANZAVISTA AVE'
p1513
(I1
I1
F1981.0
F4125.0
I1953
tp1514
tp1515
a(S'1329 07TH AVE'
p1516
(I2
I0
F14685.0
F8999.0
I1903
tp1517
tp1518
a(S'2853 FOLSOM ST'
p1519
(I2
I2
F3140.0
F2809.0
I1902
tp1520
tp1521
a(S'0 UNKNOWN '
p1522
(I0
I0
F0.0
F27965.0
I1900
tp1523
tp1524
a(S'1550 LOMBARD ST'
p1525
(I1
I0
F1002.0
F0.0
I1947
tp1526
tp1527
a(S'1142 PLYMOUTH AVE'
p1528
(I2
I2
F3902.0
F3162.0
I2009
tp1529
tp1530
a(S'1530 18TH ST'
p1531
(I2
I3
F2335.0
F1812.0
I1908
tp1532
tp1533
a(S'226 BROOKDALE AVE'
p1534
(I1
I1
F1040.0
F2573.0
I1956
tp1535
tp1536
a(S'1400 FILLMORE ST'
p1537
(I3
I0
F66500.0
F27486.0
I1985
tp1538
tp1539
a(S'611 WASHINGTON ST'
p1540
(I1
I1
F5975.0
F0.0
I1984
tp1541
tp1542
a(S'88 LIBERTY ST'
p1543
(I1
I0
F987.0
F0.0
I1953
tp1544
tp1545
a(S'1216 SANCHEZ ST'
p1546
(I2
I2
F2180.0
F1916.0
I1914
tp1547
tp1548
a(S'1971 31ST AVE'
p1549
(I1
I1
F1100.0
F2979.0
I1942
tp1550
tp1551
a(S'2154 21ST AVE'
p1552
(I1
I1
F1370.0
F2996.0
I1927
tp1553
tp1554
a(S'2150 VALLEJO ST'
p1555
(I3
I0
F1279.0
F0.0
I1906
tp1556
tp1557
a(S'2543 22ND AVE'
p1558
(I2
I1
F980.0
F3598.0
I1915
tp1559
tp1560
a(S'270 11TH AVE'
p1561
(I2
I2
F2577.0
F2996.0
I1906
tp1562
tp1563
a(S'403 MAIN ST'
p1564
(I0
I1
F811.0
F0.0
I1997
tp1565
tp1566
a(S'1869 SAN JOSE AVE'
p1567
(I1
I1
F1225.0
F3140.0
I1923
tp1568
tp1569
a(S'225 WINDING WAY'
p1570
(I1
I1
F1096.0
F4138.0
I1924
tp1571
tp1572
a(S'342 DIVISADERO ST'
p1573
(I2
I2
F3500.0
F2617.0
I1900
tp1574
tp1575
a(S'66 MALLORCA WAY'
p1576
(I3
I0
F1449.0
F2495.0
I1928
tp1577
tp1578
a(S'301 MAIN ST'
p1579
(I0
I0
F6307.0
F0.0
I2008
tp1580
tp1581
a(S'822 GEARY ST'
p1582
(I1
I1
F8875.0
F6873.0
I1941
tp1583
tp1584
a(S'140 EVELYN WAY'
p1585
(I1
I1
F1593.0
F3898.0
I1928
tp1586
tp1587
a(S'26 NAHUA AVE'
p1588
(I1
I1
F1928.0
F1999.0
I1940
tp1589
tp1590
a(S'1574 UNDERWOOD AVE'
p1591
(I2
I1
F1760.0
F2495.0
I1923
tp1592
tp1593
a(S'530 HOWARD ST'
p1594
(I4
I0
F25955.0
F5196.0
I1908
tp1595
tp1596
a(S'104 WEST CRYSTAL COVE TER'
p1597
(I3
I0
F1930.0
F0.0
I2009
tp1598
tp1599
a(S'2524 GOUGH ST'
p1600
(I2
I2
F2960.0
F2495.0
I1900
tp1601
tp1602
a(S'1547 ALABAMA ST'
p1603
(I2
I3
F2542.0
F1960.0
I1918
tp1604
tp1605
a(S'1905 LAGUNA ST'
p1606
(I0
I1
F535.0
F0.0
I1924
tp1607
tp1608
a(S'426 CONNECTICUT ST'
p1609
(I2
I1
F1780.0
F2495.0
I1907
tp1610
tp1611
a(S'630 OAK ST'
p1612
(I3
I3
F5982.0
F4120.0
I1908
tp1613
tp1614
a(S'2000 POST ST'
p1615
(I0
I1
F602.0
F0.0
I1987
tp1616
tp1617
a(S'532 PRESIDIO AVE'
p1618
(I0
I0
F1100.0
F0.0
I1923
tp1619
tp1620
a(S'1215 YORK ST'
p1621
(I1
I0
F1131.0
F0.0
I1900
tp1622
tp1623
a(S'755 TENNESSEE ST'
p1624
(I0
I1
F1048.0
F0.0
I1998
tp1625
tp1626
a(S'2372 VALLEJO ST'
p1627
(I3
I4
F5340.0
F3517.25
I1908
tp1628
tp1629
a(S'29 CASTLE MANOR AVE'
p1630
(I1
I1
F1150.0
F2243.0
I1929
tp1631
tp1632
a(S'730 ULLOA ST'
p1633
(I2
I1
F1321.0
F2874.0
I1919
tp1634
tp1635
a(S'1160 MISSION ST'
p1636
(I0
I0
F756.0
F0.0
I2008
tp1637
tp1638
a(S'30 EDGAR AVE'
p1639
(I1
I1
F1048.0
F2953.0
I1925
tp1640
tp1641
a(S'382 MISSOURI ST'
p1642
(I2
I0
F1192.0
F2495.0
I1910
tp1643
tp1644
a(S'555 04TH ST'
p1645
(I0
I0
F694.0
F0.0
I0
tp1646
tp1647
a(S'1324 SANTIAGO ST'
p1648
(I1
I1
F1455.0
F2495.0
I1948
tp1649
tp1650
a(S'49 CLAIRVIEW CT'
p1651
(I1
I1
F1284.0
F3802.0
I1958
tp1652
tp1653
a(S'32 ARGONAUT AVE'
p1654
(I2
I1
F1726.0
F1372.0
I1962
tp1655
tp1656
a(S'710 POWELL ST'
p1657
(I0
I1
F0.0
F0.0
I0
tp1658
tp1659
a(S'1730 QUESADA AVE'
p1660
(I1
I1
F1175.0
F3998.0
I1900
tp1661
tp1662
a(S'301 GARFIELD ST'
p1663
(I1
I1
F1112.0
F2199.0
I1937
tp1664
tp1665
a(S'139 RICHLAND AVE'
p1666
(I2
I2
F2250.0
F2495.0
I1905
tp1667
tp1668
a(S'154 27TH ST'
p1669
(I1
I5
F3843.0
F2848.0
I1916
tp1670
tp1671
a(S'116 CLIFFORD TER'
p1672
(I0
I1
F2300.0
F0.0
I1964
tp1673
tp1674
a(S'4111 22ND ST'
p1675
(I2
I2
F2154.0
F2243.0
I1913
tp1676
tp1677
a(S'2412 LOMBARD ST'
p1678
(I2
I2
F3325.0
F2500.0
I1915
tp1679
tp1680
a(S'1351 MASONIC AVE'
p1681
(I2
I1
F1920.0
F2652.0
I1900
tp1682
tp1683
a(S'2517 19TH ST'
p1684
(I2
I1
F1157.0
F2286.0
I1900
tp1685
tp1686
a(S'171 BEAVER ST'
p1687
(I4
I0
F2639.0
F0.0
I2006
tp1688
tp1689
a(S'199 NEW MONTGOMERY ST'
p1690
(I0
I0
F780.0
F0.0
I2004
tp1691
tp1692
a(S'666 06TH AVE'
p1693
(I2
I2
F2901.0
F3000.0
I1908
tp1694
tp1695
a(S'530 RUSSIA AVE'
p1696
(I1
I1
F2167.0
F2500.0
I1931
tp1697
tp1698
a(S'44 PROSPECT AVE'
p1699
(I2
I1
F1275.0
F1750.0
I1900
tp1700
tp1701
a(S'542 35TH AVE'
p1702
(I2
I1
F3162.0
F3000.0
I1913
tp1703
tp1704
a(S'131 GLADSTONE DR'
p1705
(I1
I1
F1095.0
F2650.0
I1942
tp1706
tp1707
a(S'870 38TH AVE'
p1708
(I2
I2
F3272.0
F3000.0
I1986
tp1709
tp1710
a(S'518 FOERSTER ST'
p1711
(I2
I1
F2354.0
F2500.0
I1999
tp1712
tp1713
a(S'1346 23RD AVE'
p1714
(I1
I1
F1050.0
F2996.0
I1923
tp1715
tp1716
a(S'120 EDGEWOOD AVE'
p1717
(I2
I1
F1744.0
F2238.0
I1910
tp1718
tp1719
a(S'4055 25TH ST'
p1720
(I2
I2
F3500.0
F2962.0
I1900
tp1721
tp1722
a(S'2918 26TH ST'
p1723
(I1
I1
F1265.0
F2268.75
I1954
tp1724
tp1725
a(S'2058 GREENWICH ST'
p1726
(I2
I2
F2776.0
F1498.0
I1947
tp1727
tp1728
a(S'1781 OAK ST'
p1729
(I1
I0
F772.0
F0.0
I1924
tp1730
tp1731
a(S'1405 INDIANA ST'
p1732
(I2
I0
F12378.0
F11595.0
I1962
tp1733
tp1734
a(S'2172 PACIFIC AVE'
p1735
(I0
I1
F1750.0
F0.0
I1900
tp1736
tp1737
a(S'212 STATES ST'
p1738
(I1
I1
F880.0
F3125.0
I1908
tp1739
tp1740
a(S'2753 BUCHANAN ST'
p1741
(I2
I2
F2992.0
F1801.25
I1948
tp1742
tp1743
a(S'3993 26TH ST'
p1744
(I1
I0
F615.0
F0.0
I1900
tp1745
tp1746
a(S'624 SAN BRUNO AVE'
p1747
(I1
I1
F1257.0
F2600.0
I1907
tp1748
tp1749
a(S'326 BRUNSWICK ST'
p1750
(I1
I1
F1070.0
F1875.0
I1942
tp1751
tp1752
a(S'2434 28TH AVE'
p1753
(I1
I1
F1045.0
F2996.0
I1923
tp1754
tp1755
a(S'2082 36TH AVE'
p1756
(I1
I1
F1350.0
F2060.0
I1954
tp1757
tp1758
a(S'462 THORNTON AVE'
p1759
(I1
I1
F850.0
F1794.0
I1941
tp1760
tp1761
a(S'789 28TH AVE'
p1762
(I2
I2
F3608.0
F2374.0
I1926
tp1763
tp1764
a(S'152 HOWTH ST'
p1765
(I1
I1
F995.0
F2408.0
I1925
tp1766
tp1767
a(S'701 CHINA BASIN ST'
p1768
(I0
I0
F0.0
F17424.0
I0
tp1769
tp1770
a(S'605 SCOTT ST'
p1771
(I3
I9
F7800.0
F3150.0
I1923
tp1772
tp1773
a(S'707 CLEMENT ST'
p1774
(I1
I0
F10300.0
F5148.0
I1930
tp1775
tp1776
a(S'2001 MCALLISTER ST'
p1777
(I1
I0
F1018.0
F0.0
I2002
tp1778
tp1779
a(S'1874 SAN JOSE AVE'
p1780
(I1
I1
F1771.0
F2090.0
I1937
tp1781
tp1782
a(S'1377 09TH AVE'
p1783
(I3
I4
F4881.0
F2996.0
I1907
tp1784
tp1785
a(S'1378 WALLER ST'
p1786
(I3
I1
F859.0
F0.0
I1904
tp1787
tp1788
a(S'4126 20TH ST'
p1789
(I1
I1
F1420.0
F2448.0
I1905
tp1790
tp1791
a(S'991 SAN BRUNO AVE'
p1792
(I1
I1
F1018.0
F1250.0
I1926
tp1793
tp1794
a(S'2438 CLAY ST'
p1795
(I0
I1
F2584.0
F0.0
I1895
tp1796
tp1797
a(S'1075 CAPITOL AVE'
p1798
(I1
I1
F1467.0
F0.0
I1985
tp1799
tp1800
a(S'2200 KIRKHAM ST'
p1801
(I2
I1
F1694.0
F2065.0
I1938
tp1802
tp1803
a(S'266 HARTFORD ST'
p1804
(I1
I1
F1300.0
F2748.0
I1905
tp1805
tp1806
a(S'233 PARKER AVE'
p1807
(I3
I14
F11426.0
F6275.0
I1963
tp1808
tp1809
a(S'32 MIRABEL AVE'
p1810
(I1
I1
F975.0
F2347.0
I1926
tp1811
tp1812
a(S'1837 OAK ST'
p1813
(I3
I12
F13920.0
F6875.0
I1904
tp1814
tp1815
a(S'2010 34TH AVE'
p1816
(I1
I1
F1258.0
F1747.0
I1948
tp1817
tp1818
a(S'149 CASITAS AVE'
p1819
(I1
I1
F1677.0
F4199.0
I1964
tp1820
tp1821
a(S'401 43RD AVE'
p1822
(I3
I21
F14881.0
F7500.0
I1929
tp1823
tp1824
a(S'111 ASHTON AVE'
p1825
(I1
I1
F825.0
F2121.0
I1924
tp1826
tp1827
a(S'1548 15TH ST'
p1828
(I2
I2
F3780.0
F1886.0
I1908
tp1829
tp1830
a(S'301 LELAND AVE'
p1831
(I2
I0
F0.0
F70532.0
I1939
tp1832
tp1833
a(S'2287 24TH AVE'
p1834
(I2
I1
F1760.0
F2374.0
I1931
tp1835
tp1836
a(S'1931 QUINT ST'
p1837
(I1
I1
F1100.0
F2495.0
I1941
tp1838
tp1839
a(S'950 DUNCAN ST'
p1840
(I1
I1
F1175.0
F0.0
I1972
tp1841
tp1842
a(S'434 41ST AVE'
p1843
(I1
I1
F1280.0
F3000.0
I1926
tp1844
tp1845
a(S'2100 IRVING ST'
p1846
(I1
I5
F4200.0
F4200.0
I1953
tp1847
tp1848
a(S'570 PAGE ST'
p1849
(I3
I1
F1234.0
F6160.0
I1998
tp1850
tp1851
a(S'74 TEHAMA ST'
p1852
(I2
I0
F4000.0
F2000.0
I1906
tp1853
tp1854
a(S'901 BUSH ST'
p1855
(I5
I0
F477.0
F0.0
I1909
tp1856
tp1857
a(S'62 FAIR OAKS ST'
p1858
(I2
I2
F1816.0
F2583.0
I1900
tp1859
tp1860
a(S'66 FOUNTAIN ST'
p1861
(I2
I0
F2041.0
F0.0
I2002
tp1862
tp1863
a(S'801 NORIEGA ST'
p1864
(I1
I1
F1854.0
F3465.0
I1953
tp1865
tp1866
a(S'334 EDINBURGH ST'
p1867
(I1
I1
F1320.0
F2495.0
I1937
tp1868
tp1869
a(S'1916 TURK ST'
p1870
(I2
I2
F2350.0
F1637.0
I1949
tp1871
tp1872
a(S'2711 SACRAMENTO ST'
p1873
(I2
I7
F3360.0
F3327.0
I1900
tp1874
tp1875
a(S'2621 33RD AVE'
p1876
(I1
I1
F1812.0
F4552.0
I1949
tp1877
tp1878
a(S'171 SKYVIEW WAY'
p1879
(I1
I1
F1064.0
F3419.0
I1956
tp1880
tp1881
a(S'479 40TH AVE'
p1882
(I2
I1
F1800.0
F1695.75
I1920
tp1883
tp1884
a(S'471 19TH AVE'
p1885
(I2
I4
F3276.0
F2996.0
I1923
tp1886
tp1887
a(S'1617 16TH AVE'
p1888
(I1
I1
F1908.0
F3275.0
I1917
tp1889
tp1890
a(S'2419 44TH AVE'
p1891
(I1
I1
F1250.0
F2996.0
I1946
tp1892
tp1893
a(S'900 BUSH ST'
p1894
(I0
I1
F1848.0
F0.0
I1982
tp1895
tp1896
a(S'627 44TH AVE'
p1897
(I2
I2
F2895.0
F4200.0
I1907
tp1898
tp1899
a(S'255 BERRY ST'
p1900
(I0
I0
F1770.0
F0.0
I2004
tp1901
tp1902
a(S'1640 OAKDALE AVE'
p1903
(I1
I1
F360.0
F2500.0
I1933
tp1904
tp1905
a(S'747 17TH AVE'
p1906
(I1
I1
F1852.0
F3000.0
I1922
tp1907
tp1908
a(S'1902 GREEN ST'
p1909
(I3
I1
F3310.0
F2674.0
I1900
tp1910
tp1911
a(S'2000 JUDAH ST'
p1912
(I1
I0
F2275.0
F3260.0
I1935
tp1913
tp1914
a(S'415 EDNA ST'
p1915
(I2
I0
F0.0
F2495.0
I1929
tp1916
tp1917
a(S'67 CARL ST'
p1918
(I3
I3
F4269.0
F2985.0
I1906
tp1919
tp1920
a(S'367 UNION ST'
p1921
(I2
I4
F3822.0
F4752.0
I1907
tp1922
tp1923
a(S'571 38TH AVE'
p1924
(I1
I1
F1325.0
F2996.0
I1923
tp1925
tp1926
a(S'2230 31ST AVE'
p1927
(I1
I1
F1455.0
F2996.0
I1954
tp1928
tp1929
a(S'87 VIENNA ST'
p1930
(I1
I1
F829.0
F2500.0
I1953
tp1931
tp1932
a(S'441 MASON ST'
p1933
(I0
I1
F0.0
F0.0
I0
tp1934
tp1935
a(S'211 JEFFERSON ST'
p1936
(I2
I4
F24627.0
F18906.25
I1953
tp1937
tp1938
a(S'55 MINERVA ST'
p1939
(I1
I1
F1550.0
F3123.0
I1976
tp1940
tp1941
a(S'871 DE HARO ST'
p1942
(I2
I1
F1352.0
F2500.0
I1910
tp1943
tp1944
a(S'4055 CESAR CHAVEZ ST'
p1945
(I2
I2
F2196.0
F2278.0
I1910
tp1946
tp1947
a(S'509 PIERCE ST'
p1948
(I1
I1
F811.0
F0.0
I1924
tp1949
tp1950
a(S'2338 ANZA ST'
p1951
(I2
I1
F2190.0
F2609.0
I1915
tp1952
tp1953
a(S'754 SWEENY ST'
p1954
(I1
I1
F1385.0
F2949.0
I1944
tp1955
tp1956
a(S'132 APOLLO ST'
p1957
(I3
I1
F3536.0
F3526.0
I2002
tp1958
tp1959
a(S'3147 16TH ST'
p1960
(I2
I2
F2800.0
F3197.0
I1904
tp1961
tp1962
a(S'2618 31ST AVE'
p1963
(I1
I1
F2067.0
F2029.0
I1932
tp1964
tp1965
a(S'336 LOMBARD ST'
p1966
(I1
I1
F1934.0
F1816.0
I1939
tp1967
tp1968
a(S'901 SADDLEBACK DR'
p1969
(I0
I1
F906.0
F0.0
I1987
tp1970
tp1971
a(S'351 DIAMOND ST'
p1972
(I2
I1
F1650.0
F2500.0
I1907
tp1973
tp1974
a(S'728 BAY ST'
p1975
(I2
I2
F2638.0
F3436.0
I1914
tp1976
tp1977
a(S'1905 LAGUNA ST'
p1978
(I0
I1
F535.0
F0.0
I1924
tp1979
tp1980
a(S'285 07TH ST'
p1981
(I2
I0
F7200.0
F8000.0
I1928
tp1982
tp1983
a(S'2670 PIERCE ST'
p1984
(I3
I0
F6909.0
F2130.0
I1907
tp1985
tp1986
a(S'158 GRANVILLE WAY'
p1987
(I2
I1
F1516.0
F3345.0
I1926
tp1988
tp1989
a(S'1921 GENEVA AVE'
p1990
(I1
I1
F982.0
F1873.0
I1944
tp1991
tp1992
a(S'601 VAN NESS AVE'
p1993
(I1
I1
F489.0
F0.0
I1982
tp1994
tp1995
a(S'2518 32ND AVE'
p1996
(I1
I1
F1550.0
F3000.0
I1941
tp1997
tp1998
a(S'137 COOK ST'
p1999
(I2
I0
F937.0
F0.0
I1900
tp2000
tp2001
a(S'218 ACADIA ST'
p2002
(I1
I1
F791.0
F2500.0
I1948
tp2003
tp2004
a(S'262 TEXAS ST'
p2005
(I1
I2
F1300.0
F2495.0
I1900
tp2006
tp2007
a(S'52 NEY ST'
p2008
(I2
I1
F1400.0
F2748.0
I1907
tp2009
tp2010
a(S'59 BRITTON ST'
p2011
(I1
I1
F1045.0
F2709.0
I1942
tp2012
tp2013
a(S'2535 30TH AVE'
p2014
(I1
I1
F1400.0
F3000.0
I1940
tp2015
tp2016
a(S'176 02ND ST'
p2017
(I0
I0
F0.0
F4059.0
I1900
tp2018
tp2019
a(S'2940 21ST AVE'
p2020
(I1
I1
F1922.0
F3800.0
I1933
tp2021
tp2022
a(S'1542 GRANT AVE'
p2023
(I1
I0
F424.0
F0.0
I1906
tp2024
tp2025
a(S'2030 03RD ST'
p2026
(I0
I1
F778.0
F0.0
I1999
tp2027
tp2028
a(S'1000 NORTH POINT ST'
p2029
(I18
I0
F582.0
F0.0
I1963
tp2030
tp2031
a(S'1754 08TH AVE'
p2032
(I1
I1
F1975.0
F2495.0
I1931
tp2033
tp2034
a(S'1360 QUESADA AVE'
p2035
(I1
I1
F1169.0
F2500.0
I1950
tp2036
tp2037
a(S'149 WARREN DR'
p2038
(I1
I1
F1624.0
F3297.0
I1958
tp2039
tp2040
a(S'570 FLOOD AVE'
p2041
(I1
I1
F1115.0
F2812.5
I1927
tp2042
tp2043
a(S'1444 06TH AVE'
p2044
(I2
I1
F1750.0
F2996.0
I1908
tp2045
tp2046
a(S'1430 40TH AVE'
p2047
(I1
I1
F1675.0
F2996.0
I1928
tp2048
tp2049
a(S'1327 07TH AVE'
p2050
(I0
I0
F1028.0
F8812.5
I0
tp2051
tp2052
a(S'542 LAIDLEY ST'
p2053
(I1
I1
F1325.0
F2500.0
I1912
tp2054
tp2055
a(S'1735 LYON ST'
p2056
(I2
I2
F3248.0
F3494.46
I1902
tp2057
tp2058
a(S'818 CONGO ST'
p2059
(I2
I1
F2400.0
F3371.0
I1977
tp2060
tp2061
a(S'522 CLIPPER ST'
p2062
(I2
I2
F2260.0
F2935.5
I1900
tp2063
tp2064
a(S'1529 IRVING ST'
p2065
(I2
I4
F3022.0
F2495.0
I1951
tp2066
tp2067
a(S'3727 GEARY BLVD'
p2068
(I3
I5
F4000.0
F2500.0
I1923
tp2069
tp2070
a(S'2554 14TH AVE'
p2071
(I1
I1
F1350.0
F3031.0
I1938
tp2072
tp2073
a(S'1643 30TH AVE'
p2074
(I1
I1
F1430.0
F2996.0
I1935
tp2075
tp2076
a(S'115 PINEHURST WAY'
p2077
(I1
I1
F1986.0
F2631.0
I1931
tp2078
tp2079
a(S'1976 LOMBARD ST'
p2080
(I2
I4
F4576.0
F6594.0
I1910
tp2081
tp2082
a(S'1457 WILLARD ST'
p2083
(I3
I1
F1890.0
F2282.0
I1907
tp2084
tp2085
a(S'10 MILLER PL'
p2086
(I24
I1
F3875.0
F0.0
I1963
tp2087
tp2088
a(S'727 BAY ST'
p2089
(I2
I1
F1500.0
F1033.12
I1937
tp2090
tp2091
a(S'2770 19TH AVE'
p2092
(I5
I1
F1240.0
F0.0
I1979
tp2093
tp2094
a(S'301 MISSION ST'
p2095
(I0
I0
F1485.0
F0.0
I2009
tp2096
tp2097
a(S'325 CAPP ST'
p2098
(I1
I1
F1795.0
F4212.0
I1900
tp2099
tp2100
a(S'71 MIDDLEFIELD DR'
p2101
(I1
I1
F1125.0
F2500.0
I1941
tp2102
tp2103
a(S'115 CHARTER OAK AVE'
p2104
(I0
I0
F0.0
F2495.0
I0
tp2105
tp2106
a(S'888 OFARRELL ST'
p2107
(I0
I0
F18244.0
F0.0
I1988
tp2108
tp2109
a(S'120 MANCHESTER ST'
p2110
(I2
I1
F2162.0
F1999.0
I1900
tp2111
tp2112
a(S'50 MELBA AVE'
p2113
(I1
I1
F1490.0
F3341.0
I1951
tp2114
tp2115
a(S'1041 MARKET ST'
p2116
(I6
I0
F25475.0
F4125.0
I1907
tp2117
tp2118
a(S'1266 18TH AVE'
p2119
(I3
I9
F8955.0
F4499.0
I1961
tp2120
tp2121
a(S'211 GOUGH ST'
p2122
(I3
I30
F6931.0
F3874.0
I1907
tp2123
tp2124
a(S'401 UNION ST'
p2125
(I0
I1
F880.0
F0.0
I1979
tp2126
tp2127
a(S'1267 RHODE ISLAND ST'
p2128
(I2
I2
F1954.0
F2495.0
I1900
tp2129
tp2130
a(S'333 TRUMBULL ST'
p2131
(I1
I1
F1609.0
F3480.0
I1964
tp2132
tp2133
a(S'139 STEINER ST'
p2134
(I0
I0
F922.0
F0.0
I2009
tp2135
tp2136
a(S'451 KANSAS ST'
p2137
(I0
I0
F694.0
F0.0
I2007
tp2138
tp2139
a(S'1177 CALIFORNIA ST'
p2140
(I0
I1
F411.0
F0.0
I1978
tp2141
tp2142
a(S'301 MISSION ST'
p2143
(I0
I0
F1485.0
F0.0
I2009
tp2144
tp2145
a(S'441 MASON ST'
p2146
(I0
I1
F0.0
F0.0
I0
tp2147
tp2148
a(S'631 OFARRELL ST'
p2149
(I19
I1
F610.0
F0.0
I1930
tp2150
tp2151
a(S'1544 DOLORES ST'
p2152
(I1
I0
F1236.0
F0.0
I1900
tp2153
tp2154
a(S'39 MORNINGSIDE DR'
p2155
(I1
I1
F1481.0
F3135.0
I1951
tp2156
tp2157
a(S'2721 JUDAH ST'
p2158
(I1
I2
F2002.0
F2500.0
I1951
tp2159
tp2160
a(S'16 ALVARADO ST'
p2161
(I2
I2
F2844.0
F2850.0
I1928
tp2162
tp2163
a(S'35 STONEMAN ST'
p2164
(I3
I2
F1995.0
F1875.0
I1900
tp2165
tp2166
a(S'120 BURROWS ST'
p2167
(I0
I1
F820.0
F0.0
I1980
tp2168
tp2169
a(S'160 OXFORD ST'
p2170
(I1
I1
F1630.0
F2996.0
I1948
tp2171
tp2172
a(S'470 JUSTIN DR'
p2173
(I1
I1
F1250.0
F3336.0
I1928
tp2174
tp2175
a(S'1596 POST ST'
p2176
(I2
I2
F6988.0
F2414.9
I1960
tp2177
tp2178
a(S'850 POWELL ST'
p2179
(I9
I1
F1415.0
F0.0
I1978
tp2180
tp2181
a(S'630 EXCELSIOR AVE'
p2182
(I1
I1
F1200.0
F1875.0
I1926
tp2183
tp2184
a(S'116 WOOL ST'
p2185
(I2
I1
F1338.0
F1750.0
I1912
tp2186
tp2187
a(S'2133 LOMBARD ST'
p2188
(I2
I2
F2402.0
F1960.0
I1924
tp2189
tp2190
a(S'1736 20TH AVE'
p2191
(I2
I0
F2225.0
F0.0
I2001
tp2192
tp2193
a(S'85 TIOGA AVE'
p2194
(I1
I1
F1355.0
F2495.0
I1946
tp2195
tp2196
a(S'6620 GEARY BLVD'
p2197
(I1
I1
F1355.0
F10000.0
I1981
tp2198
tp2199
a(S'719 CLEMENT ST'
p2200
(I1
I0
F5200.0
F5196.0
I1919
tp2201
tp2202
a(S'1766 46TH AVE'
p2203
(I1
I1
F1106.0
F3000.0
I1947
tp2204
tp2205
a(S'354 11TH ST'
p2206
(I2
I3
F0.0
F1981.0
I1906
tp2207
tp2208
a(S'1970 EDDY ST'
p2209
(I2
I4
F3507.0
F3436.0
I1900
tp2210
tp2211
a(S'602 29TH ST'
p2212
(I1
I0
F1051.0
F0.0
I1926
tp2213
tp2214
a(S'1403 GOLDEN GATE AVE'
p2215
(I3
I0
F1595.0
F0.0
I1890
tp2216
tp2217
a(S'1644 14TH AVE'
p2218
(I0
I1
F2070.0
F0.0
I1978
tp2219
tp2220
a(S'1375 37TH AVE'
p2221
(I1
I1
F1777.0
F2996.0
I1923
tp2222
tp2223
a(S'2015 LAGUNA ST'
p2224
(I3
I12
F10953.0
F4726.0
I1923
tp2225
tp2226
a(S'151 ALICE B TOKLAS PL'
p2227
(I8
I1
F1376.0
F0.0
I1920
tp2228
tp2229
a(S'118 DELLBROOK AVE'
p2230
(I1
I1
F937.0
F3463.0
I1956
tp2231
tp2232
a(S'1918 CLEMENT ST'
p2233
(I2
I2
F2484.0
F2500.0
I1908
tp2234
tp2235
a(S'993 TENNESSEE ST'
p2236
(I0
I0
F1349.0
F0.0
I2003
tp2237
tp2238
a(S'1688 WALLACE AVE'
p2239
(I0
I0
F799.0
F0.0
I2003
tp2240
tp2241
a(S'707 GUERRERO ST'
p2242
(I0
I0
F1187.0
F2247.0
I1907
tp2243
tp2244
a(S'3692 FOLSOM ST'
p2245
(I1
I1
F1125.0
F1746.0
I1951
tp2246
tp2247
a(S'625 ANDOVER ST'
p2248
(I2
I1
F1275.0
F1750.0
I1914
tp2249
tp2250
a(S'584 TERESITA BLVD'
p2251
(I1
I1
F1250.0
F2334.0
I1940
tp2252
tp2253
a(S'1562 FELL ST'
p2254
(I0
I0
F1330.0
F0.0
I1900
tp2255
tp2256
a(S'1217 02ND AVE'
p2257
(I2
I3
F3540.0
F2060.0
I1908
tp2258
tp2259
a(S'2409 39TH AVE'
p2260
(I2
I2
F2642.0
F0.0
I1963
tp2261
tp2262
a(S'338 SPEAR ST'
p2263
(I0
I0
F6307.0
F0.0
I2008
tp2264
tp2265
a(S'100 WALNUT ST'
p2266
(I0
I1
F0.0
F0.0
I1900
tp2267
tp2268
a(S'30 LANGTON ST'
p2269
(I1
I0
F1875.0
F1873.0
I1929
tp2270
tp2271
a(S'2090 FELL ST'
p2272
(I0
I1
F1050.0
F0.0
I1994
tp2273
tp2274
a(S'75 SUMMIT WAY'
p2275
(I0
I0
F0.0
F2860.0
I0
tp2276
tp2277
a(S'1371 46TH AVE'
p2278
(I2
I2
F3230.0
F3000.0
I1907
tp2279
tp2280
a(S'38 ANKENY ST'
p2281
(I1
I1
F2968.0
F0.0
I1976
tp2282
tp2283
a(S'601 04TH ST'
p2284
(I0
I0
F0.0
F2135.38
I0
tp2285
tp2286
a(S'427 CAPP ST'
p2287
(I0
I1
F2468.0
F3672.0
I1870
tp2288
tp2289
a(S'1589 42ND AVE'
p2290
(I2
I6
F5950.0
F2500.0
I1948
tp2291
tp2292
a(S'1362 28TH AVE'
p2293
(I1
I1
F1425.0
F3000.0
I1924
tp2294
tp2295
a(S'441 MASON ST'
p2296
(I0
I1
F0.0
F0.0
I0
tp2297
tp2298
a(S'1241 SHRADER ST'
p2299
(I1
I1
F769.0
F2988.0
I1909
tp2300
tp2301
a(S'1515 THOMAS AVE'
p2302
(I1
I1
F956.0
F2495.0
I1900
tp2303
tp2304
a(S'321 KEARNY ST'
p2305
(I3
I2
F5371.0
F1206.0
I1912
tp2306
tp2307
a(S'1800 BRYANT ST'
p2308
(I0
I1
F1122.0
F0.0
I2000
tp2309
tp2310
a(S'557 IVY ST'
p2311
(I2
I2
F1978.0
F1284.4
I1924
tp2312
tp2313
a(S'318 10TH AVE'
p2314
(I2
I2
F2742.0
F3000.0
I1918
tp2315
tp2316
a(S'1591 JACKSON ST'
p2317
(I1
I1
F1292.0
F0.0
I1986
tp2318
tp2319
a(S'390 ELIZABETH ST'
p2320
(I0
I1
F1200.0
F0.0
I1906
tp2321
tp2322
a(S'49 JASPER PL'
p2323
(I3
I3
F2940.0
F2138.0
I1908
tp2324
tp2325
a(S'1 GREENWOOD AVE'
p2326
(I1
I1
F1346.0
F4521.0
I1922
tp2327
tp2328
a(S'971 HOWARD ST'
p2329
(I0
I1
F932.0
F0.0
I1999
tp2330
tp2331
a(S'89 WESTWOOD DR'
p2332
(I1
I1
F1150.0
F3240.0
I1918
tp2333
tp2334
a(S'30 ENCANTO AVE'
p2335
(I1
I1
F4194.0
F4977.99
I1954
tp2336
tp2337
a(S'1846 47TH AVE'
p2338
(I1
I1
F2330.0
F3000.0
I1958
tp2339
tp2340
a(S'855 BARNEVELD AVE'
p2341
(I1
I1
F1339.0
F1873.0
I1948
tp2342
tp2343
a(S'1886 14TH AVE'
p2344
(I1
I1
F1309.0
F3619.0
I1957
tp2345
tp2346
a(S'1395 47TH AVE'
p2347
(I2
I8
F5748.0
F3249.0
I1960
tp2348
tp2349
a(S'2408 15TH ST'
p2350
(I0
I0
F550.0
F0.0
I1911
tp2351
tp2352
a(S'2430 17TH AVE'
p2353
(I1
I1
F1180.0
F2996.0
I1924
tp2354
tp2355
a(S'243 WALLER ST'
p2356
(I2
I3
F3530.0
F3537.88
I1890
tp2357
tp2358
a(S'2070 19TH AVE'
p2359
(I1
I1
F1245.0
F2250.0
I1924
tp2360
tp2361
a(S'5431 CALIFORNIA ST'
p2362
(I3
I12
F9225.0
F3843.2
I1925
tp2363
tp2364
a(S'1526 09TH AVE'
p2365
(I2
I1
F1600.0
F2996.0
I1909
tp2366
tp2367
a(S'241 EXCELSIOR AVE'
p2368
(I2
I1
F1700.0
F1873.0
I1919
tp2369
tp2370
a(S'3067 SACRAMENTO ST'
p2371
(I2
I2
F3540.0
F3645.0
I1900
tp2372
tp2373
a(S'2454 25TH AVE'
p2374
(I1
I1
F1870.0
F3000.0
I1924
tp2375
tp2376
a(S'109 MIRAMAR AVE'
p2377
(I1
I1
F1023.0
F1663.0
I1940
tp2378
tp2379
a(S'185 CHILTON AVE'
p2380
(I1
I1
F1271.0
F2500.0
I1915
tp2381
tp2382
a(S'563 22ND AVE'
p2383
(I3
I2
F4773.0
F3000.0
I1984
tp2384
tp2385
a(S'3165 SACRAMENTO ST'
p2386
(I1
I1
F510.0
F0.0
I1900
tp2387
tp2388
a(S'2530 VALLEJO ST'
p2389
(I2
I1
F3380.0
F3000.0
I1925
tp2390
tp2391
a(S'758 SAN JOSE AVE'
p2392
(I1
I1
F1175.0
F2339.0
I1900
tp2393
tp2394
a(S'1839 31ST AVE'
p2395
(I1
I1
F950.0
F2996.0
I1943
tp2396
tp2397
a(S'1556 FILBERT ST'
p2398
(I3
I6
F8094.0
F3846.0
I1925
tp2399
tp2400
a(S'324 FREDERICK ST'
p2401
(I2
I2
F2940.0
F2750.0
I1906
tp2402
tp2403
a(S'1011 UNION ST'
p2404
(I2
I6
F3156.0
F2247.0
I1949
tp2405
tp2406
a(S'3542 JENNINGS ST'
p2407
(I1
I1
F1483.0
F2495.0
I1964
tp2408
tp2409
a(S'10 WILDER ST'
p2410
(I1
I1
F800.0
F1346.0
I1914
tp2411
tp2412
a(S'236 SANTA ROSA AVE'
p2413
(I1
I1
F1272.0
F3062.0
I1924
tp2414
tp2415
a(S'200 BRANNAN ST'
p2416
(I3
I0
F2042.0
F0.0
I2004
tp2417
tp2418
a(S'89 STANYAN BLVD'
p2419
(I2
I2
F2278.0
F2761.0
I1939
tp2420
tp2421
a(S'166 CURTIS ST'
p2422
(I1
I1
F1025.0
F2996.0
I1941
tp2423
tp2424
a(S'19 CASTILLO ST'
p2425
(I2
I2
F1900.0
F2500.0
I1948
tp2426
tp2427
a(S'431 LELAND AVE'
p2428
(I1
I1
F1130.0
F2043.75
I1944
tp2429
tp2430
a(S'1190 REVERE AVE'
p2431
(I1
I1
F1600.0
F1829.0
I1989
tp2432
tp2433
a(S'34 WILLIAMS AVE'
p2434
(I2
I0
F2680.0
F2500.0
I1918
tp2435
tp2436
a(S'548 BRANNAN ST'
p2437
(I0
I0
F1173.0
F0.0
I2003
tp2438
tp2439
a(S'2045 MONTEREY BLVD'
p2440
(I2
I1
F1392.0
F3998.0
I1923
tp2441
tp2442
a(S'2027 MARKET ST'
p2443
(I0
I1
F1203.0
F0.0
I1995
tp2444
tp2445
a(S'312 19TH AVE'
p2446
(I3
I1
F3182.0
F1800.0
I1906
tp2447
tp2448
a(S'2555 16TH AVE'
p2449
(I1
I1
F1475.0
F3000.0
I1922
tp2450
tp2451
a(S'3232 MISSION ST'
p2452
(I2
I3
F3150.0
F2495.0
I1900
tp2453
tp2454
a(S'565 ARGUELLO BLVD'
p2455
(I0
I0
F1471.0
F0.0
I2007
tp2456
tp2457
a(S'2215 43RD AVE'
p2458
(I1
I1
F1216.0
F3000.0
I1941
tp2459
tp2460
a(S'2266 BAY ST'
p2461
(I2
I0
F2425.0
F2812.5
I1968
tp2462
tp2463
a(S'1252 BROADWAY '
p2464
(I3
I3
F5011.0
F3184.5
I1996
tp2465
tp2466
a(S'6509 GEARY BLVD'
p2467
(I1
I1
F763.0
F5100.0
I1981
tp2468
tp2469
a(S'542 CAMPBELL AVE'
p2470
(I1
I1
F1237.0
F2495.0
I1953
tp2471
tp2472
a(S'455 SCOTT ST'
p2473
(I0
I0
F1852.0
F0.0
I1988
tp2474
tp2475
a(S'1542 24TH AVE'
p2476
(I1
I1
F1500.0
F2996.0
I1939
tp2477
tp2478
a(S'710 POWELL ST'
p2479
(I0
I1
F0.0
F0.0
I0
tp2480
tp2481
a(S'1718 33RD AVE'
p2482
(I1
I1
F1270.0
F3000.0
I1940
tp2483
tp2484
a(S'2701 ARELIOUS WALKER DR'
p2485
(I0
I0
F0.0
F49100.0
I0
tp2486
tp2487
a(S'1836 NORIEGA ST'
p2488
(I1
I2
F2009.0
F2478.0
I1932
tp2489
tp2490
a(S'527 HEARST AVE'
p2491
(I1
I1
F1190.0
F3375.0
I1923
tp2492
tp2493
a(S'241 04TH AVE'
p2494
(I2
I4
F3646.0
F2996.0
I1910
tp2495
tp2496
a(S'909 DARTMOUTH ST'
p2497
(I2
I1
F1460.0
F3000.0
I1965
tp2498
tp2499
a(S'2486 15TH AVE'
p2500
(I2
I1
F1230.0
F1964.0
I1926
tp2501
tp2502
a(S'1374 BROADWAY '
p2503
(I3
I4
F5100.0
F2275.0
I1915
tp2504
tp2505
a(S'1727 18TH AVE'
p2506
(I1
I1
F1425.0
F3000.0
I1929
tp2507
tp2508
a(S'170 RIPLEY ST'
p2509
(I2
I1
F3500.0
F2250.0
I1900
tp2510
tp2511
a(S'2600 LYON ST'
p2512
(I3
I1
F4610.0
F3768.55
I1916
tp2513
tp2514
a(S'542 33RD AVE'
p2515
(I1
I1
F1205.0
F3000.0
I1925
tp2516
tp2517
a(S'1506 27TH AVE'
p2518
(I1
I1
F1540.0
F2374.0
I1932
tp2519
tp2520
a(S'807 COLUMBUS AVE'
p2521
(I0
I0
F1040.0
F0.0
I2003
tp2522
tp2523
a(S'1442 20TH AVE'
p2524
(I2
I2
F2700.0
F3000.0
I1940
tp2525
tp2526
a(S'71 SYLVAN DR'
p2527
(I1
I1
F1224.0
F2495.0
I1941
tp2528
tp2529
a(S'3408 CLAY ST'
p2530
(I3
I1
F2800.0
F3432.31
I1900
tp2531
tp2532
a(S'643 EDNA ST'
p2533
(I1
I1
F1995.0
F2474.0
I1924
tp2534
tp2535
a(S'4238 23RD ST'
p2536
(I2
I1
F1600.0
F1393.0
I1908
tp2537
tp2538
a(S'147 SHIPLEY ST'
p2539
(I3
I1
F1197.0
F0.0
I1992
tp2540
tp2541
a(S'1940 20TH AVE'
p2542
(I1
I1
F1398.0
F2996.0
I1926
tp2543
tp2544
a(S'385 LIBERTY ST'
p2545
(I3
I1
F3545.0
F3135.0
I1993
tp2546
tp2547
a(S'2732 ANZA ST'
p2548
(I1
I1
F1697.0
F0.0
I1941
tp2549
tp2550
a(S'437 GAVEN ST'
p2551
(I0
I1
F0.0
F0.0
I1997
tp2552
tp2553
a(S'3833 20TH ST'
p2554
(I2
I0
F900.0
F2850.0
I1906
tp2555
tp2556
a(S'456 LAKE ST'
p2557
(I0
I1
F2343.0
F2184.0
I1912
tp2558
tp2559
a(S'1839 48TH AVE'
p2560
(I1
I1
F1317.0
F2121.0
I1945
tp2561
tp2562
a(S'300 03RD ST'
p2563
(I1
I1
F946.0
F0.0
I1990
tp2564
tp2565
a(S'423 JERSEY ST'
p2566
(I2
I1
F2115.0
F2278.0
I1912
tp2567
tp2568
a(S'49 POND ST'
p2569
(I0
I0
F974.0
F0.0
I1890
tp2570
tp2571
a(S'1234 HAWES ST'
p2572
(I1
I1
F1200.0
F1873.0
I1941
tp2573
tp2574
a(S'90 BRIDGEVIEW DR'
p2575
(I1
I1
F1629.0
F3689.0
I1954
tp2576
tp2577
a(S'631 FOLSOM ST'
p2578
(I1
I0
F1190.0
F0.0
I2009
tp2579
tp2580
a(S'131 STAPLES AVE'
p2581
(I1
I1
F1175.0
F3746.0
I1923
tp2582
tp2583
a(S'151 SWISS AVE'
p2584
(I1
I1
F756.0
F2448.0
I1950
tp2585
tp2586
a(S'348 GRAFTON AVE'
p2587
(I1
I1
F1126.0
F2500.0
I1948
tp2588
tp2589
a(S'0 UNKNOWN '
p2590
(I0
I0
F0.0
F27965.0
I1900
tp2591
tp2592
a(S'1400 MISSION ST'
p2593
(I2
I0
F0.0
F24631.0
I0
tp2594
tp2595
a(S'1512 YORK ST'
p2596
(I1
I0
F1112.0
F0.0
I1902
tp2597
tp2598
a(S'338 SPEAR ST'
p2599
(I0
I0
F6307.0
F0.0
I2008
tp2600
tp2601
a.