(lp0
(S'201 HARRISON ST'
p1
(I1
I1
F432.0
F0.0
I1991
tp2
tp3
a(S'2068 03RD ST'
p4
(I0
I1
F768.0
F0.0
I1999
tp5
tp6
a(S'149 MASONIC AVE'
p7
(I2
I2
F2672.0
F2073.0
I1939
tp8
tp9
a(S'901 SILVER AVE'
p10
(I1
I1
F1682.0
F3953.7
I1940
tp11
tp12
a(S'306 RIDGEWOOD AVE'
p13
(I1
I1
F888.0
F2495.0
I1915
tp14
tp15
a(S'74 SHARON ST'
p16
(I2
I5
F3505.0
F3123.0
I1900
tp17
tp18
a(S'2155 WEBSTER ST'
p19
(I0
I0
F0.0
F15999.0
I1900
tp20
tp21
a(S'246 02ND ST'
p22
(I1
I1
F668.0
F0.0
I2000
tp23
tp24
a(S'2485 23RD AVE'
p25
(I1
I1
F1475.0
F2060.0
I1928
tp26
tp27
a(S'1838 21ST AVE'
p28
(I1
I1
F1168.0
F2996.0
I1915
tp29
tp30
a(S'127 DUBOCE AVE'
p31
(I3
I3
F3540.0
F2247.0
I1907
tp32
tp33
a(S'128 CHICAGO WAY'
p34
(I1
I1
F1350.0
F2495.0
I1951
tp35
tp36
a(S'166 10TH AVE'
p37
(I2
I4
F4120.0
F2996.0
I1967
tp38
tp39
a(S'2315 VAN NESS AVE'
p40
(I0
I0
F900.0
F0.0
I2003
tp41
tp42
a(S'146 27TH ST'
p43
(I2
I0
F1257.0
F0.0
I1915
tp44
tp45
a(S'210 SADOWA ST'
p46
(I2
I1
F2000.0
F2495.0
I1906
tp47
tp48
a(S'1230 GIRARD ST'
p49
(I1
I1
F1435.0
F2996.0
I1928
tp50
tp51
a(S'807 47TH AVE'
p52
(I0
I0
F1314.0
F0.0
I0
tp53
tp54
a(S'934 GREENWICH ST'
p55
(I3
I9
F8445.0
F6298.0
I1908
tp56
tp57
a(S'750 ANDOVER ST'
p58
(I2
I2
F2600.0
F2625.0
I1989
tp59
tp60
a(S'600 VAN NESS AVE'
p61
(I2
I1
F10770.0
F13080.0
I1978
tp62
tp63
a(S'1 SAN ANTONIO PL'
p64
(I3
I12
F13629.0
F7692.0
I1961
tp65
tp66
a(S'2351 POWELL ST'
p67
(I0
I0
F578.0
F0.0
I1968
tp68
tp69
a(S'188 KING ST'
p70
(I0
I1
F1915.0
F0.0
I2006
tp71
tp72
a(S'2000 17TH AVE'
p73
(I1
I1
F1122.0
F3097.0
I1930
tp74
tp75
a(S'257 BRADFORD ST'
p76
(I1
I1
F1180.0
F1751.0
I1962
tp77
tp78
a(S'3021 26TH AVE'
p79
(I1
I1
F2240.0
F3998.0
I1936
tp80
tp81
a(S'648 02ND AVE'
p82
(I2
I1
F1763.0
F2996.0
I1905
tp83
tp84
a(S'1771 QUESADA AVE'
p85
(I1
I1
F875.0
F2500.0
I1910
tp86
tp87
a(S'201 HARRISON ST'
p88
(I1
I1
F432.0
F0.0
I1991
tp89
tp90
a(S'106 PARNASSUS AVE'
p91
(I3
I12
F13250.0
F5000.0
I1922
tp92
tp93
a(S'441 MASON ST'
p94
(I0
I1
F0.0
F0.0
I0
tp95
tp96
a(S'148 JORDAN AVE'
p97
(I2
I1
F2420.0
F3996.0
I1915
tp98
tp99
a(S'950 STOCKTON ST'
p100
(I1
I0
F1294.0
F0.0
I1970
tp101
tp102
a(S'284 DAY ST'
p103
(I1
I1
F1286.0
F2848.0
I1900
tp104
tp105
a(S'174 NAGLEE AVE'
p106
(I1
I1
F1617.0
F1999.0
I1947
tp107
tp108
a(S'60 POTOMAC ST'
p109
(I2
I1
F1760.0
F2247.0
I1900
tp110
tp111
a(S'1280 10TH AVE'
p112
(I1
I2
F3250.0
F3260.0
I1904
tp113
tp114
a(S'2444 VAN NESS AVE'
p115
(I0
I1
F516.0
F0.0
I1926
tp116
tp117
a(S'70 ATHENS ST'
p118
(I1
I1
F1061.0
F2495.0
I1950
tp119
tp120
a(S'1874 GOLDEN GATE AVE'
p121
(I2
I0
F1770.0
F0.0
I2014
tp122
tp123
a(S'862 CHURCH ST'
p124
(I2
I2
F1636.0
F2992.5
I1940
tp125
tp126
a(S'35 APTOS AVE'
p127
(I2
I1
F2889.0
F6198.0
I1928
tp128
tp129
a(S'27 WINFIELD ST'
p130
(I2
I1
F2011.0
F1751.0
I1948
tp131
tp132
a(S'445 TARAVAL ST'
p133
(I1
I1
F9938.0
F15899.0
I1974
tp134
tp135
a(S'12 DELMAR ST'
p136
(I2
I2
F1980.0
F1019.0
I1907
tp137
tp138
a(S'79 LIEBIG ST'
p139
(I2
I1
F1544.0
F2513.0
I1913
tp140
tp141
a(S'1419 BRYANT ST'
p142
(I1
I0
F0.0
F47998.0
I1900
tp143
tp144
a(S'40 HARTFORD ST'
p145
(I0
I0
F1010.0
F0.0
I1901
tp146
tp147
a(S'3227 FOLSOM ST'
p148
(I1
I1
F945.0
F3023.0
I1908
tp149
tp150
a(S'2432 DIAMOND ST'
p151
(I3
I1
F2410.0
F4874.0
I1998
tp152
tp153
a(S'165 PERALTA AVE'
p154
(I2
I7
F3408.0
F1750.0
I1900
tp155
tp156
a(S'749 03RD AVE'
p157
(I2
I1
F2590.0
F3840.0
I1916
tp158
tp159
a(S'1201 CALIFORNIA ST'
p160
(I16
I0
F1520.0
F0.0
I1927
tp161
tp162
a(S'1625 GOUGH ST'
p163
(I2
I8
F3470.0
F4290.0
I1953
tp164
tp165
a(S'2050 12TH AVE'
p166
(I1
I1
F1505.0
F2983.0
I1955
tp167
tp168
a(S'541 RAYMOND AVE'
p169
(I1
I1
F1766.0
F2500.0
I1965
tp170
tp171
a(S'451 KANSAS ST'
p172
(I0
I0
F694.0
F0.0
I2007
tp173
tp174
a(S'1705 OAK ST'
p175
(I2
I1
F2375.0
F2495.0
I1900
tp176
tp177
a(S'49 LUPINE AVE'
p178
(I2
I2
F3162.0
F4200.24
I1951
tp179
tp180
a(S'205 STONERIDGE LN'
p181
(I0
I1
F0.0
F0.0
I0
tp182
tp183
a(S'3037 QUINTARA ST'
p184
(I1
I1
F1148.0
F1873.0
I1951
tp185
tp186
a(S'191 ANZAVISTA AVE'
p187
(I2
I1
F2160.0
F4120.0
I1953
tp188
tp189
a(S'2452 GREEN ST'
p190
(I2
I1
F1840.0
F3741.0
I1907
tp191
tp192
a(S'2377 FRANCISCO ST'
p193
(I1
I0
F1728.0
F0.0
I0
tp194
tp195
a(S'262 19TH AVE'
p196
(I2
I2
F3080.0
F2996.0
I1922
tp197
tp198
a(S'16 SANCHEZ ST'
p199
(I1
I0
F1095.0
F1916.0
I1900
tp200
tp201
a(S'285 ALLISON ST'
p202
(I1
I1
F1407.0
F2374.0
I1928
tp203
tp204
a(S'557 LONDON ST'
p205
(I1
I1
F1000.0
F2495.0
I1900
tp206
tp207
a(S'2154 40TH AVE'
p208
(I1
I1
F1371.0
F3000.0
I1948
tp209
tp210
a(S'2225 KIRKHAM ST'
p211
(I1
I1
F1500.0
F2495.0
I1931
tp212
tp213
a(S'1163 SANCHEZ ST'
p214
(I2
I1
F970.0
F0.0
I1910
tp215
tp216
a(S'1883 29TH AVE'
p217
(I1
I1
F1153.0
F2962.0
I1938
tp218
tp219
a(S'325 BERRY ST'
p220
(I0
I0
F846.0
F0.0
I2007
tp221
tp222
a(S'1118 HOLLISTER AVE'
p223
(I1
I1
F545.0
F2500.0
I1909
tp224
tp225
a(S'1129 INGERSON AVE'
p226
(I1
I1
F700.0
F2500.0
I1908
tp227
tp228
a(S'1818 08TH AVE'
p229
(I1
I1
F1575.0
F1420.0
I1928
tp230
tp231
a(S'1627 CAYUGA AVE'
p232
(I1
I1
F1010.0
F2000.0
I1938
tp233
tp234
a(S'356 ROLPH ST'
p235
(I1
I1
F862.0
F2145.0
I1923
tp236
tp237
a(S'61 WARREN DR'
p238
(I1
I1
F1265.0
F2874.0
I1959
tp239
tp240
a(S'580 BEACH ST'
p241
(I0
I0
F0.0
F55687.5
I0
tp242
tp243
a(S'267 CHATTANOOGA ST'
p244
(I2
I3
F3315.0
F3668.0
I1913
tp245
tp246
a(S'600 39TH AVE'
p247
(I2
I2
F2980.0
F2696.0
I1924
tp248
tp249
a(S'165 SANTA ROSA AVE'
p250
(I1
I1
F1279.0
F2495.0
I1925
tp251
tp252
a(S'18 DORADO TER'
p253
(I2
I1
F1712.0
F0.0
I1991
tp254
tp255
a(S'3433 03RD ST'
p256
(I0
I0
F0.0
F25968.0
I0
tp257
tp258
a(S'1362 07TH AVE'
p259
(I3
I1
F3204.0
F2996.0
I1910
tp260
tp261
a(S'1390 PALOU AVE'
p262
(I1
I1
F1105.0
F3497.0
I1947
tp263
tp264
a(S'300 BERRY ST'
p265
(I0
I0
F856.0
F0.0
I2009
tp266
tp267
a(S'1983 20TH AVE'
p268
(I1
I1
F2854.0
F2095.0
I1926
tp269
tp270
a(S'490 DOUGLASS ST'
p271
(I1
I1
F1446.0
F2304.0
I1937
tp272
tp273
a(S'88 BELLE AVE'
p274
(I1
I1
F1006.0
F2087.5
I1950
tp275
tp276
a(S'272 SWEENY ST'
p277
(I1
I1
F1000.0
F1875.0
I1926
tp278
tp279
a(S'166 29TH ST'
p280
(I0
I0
F1400.0
F0.0
I2009
tp281
tp282
a(S'3321 17TH ST'
p283
(I0
I1
F500.0
F0.0
I1925
tp284
tp285
a(S'455 10TH ST'
p286
(I2
I0
F4080.0
F2395.0
I1926
tp287
tp288
a(S'140 PALOMA AVE'
p289
(I2
I1
F1899.0
F7322.0
I1937
tp290
tp291
a(S'1355 RHODE ISLAND ST'
p292
(I1
I1
F850.0
F2500.0
I1910
tp293
tp294
a(S'148 MOFFITT ST'
p295
(I1
I1
F1100.0
F2500.0
I1950
tp296
tp297
a(S'569 CHENERY ST'
p298
(I1
I1
F1312.0
F2500.0
I1951
tp299
tp300
a(S'1662 20TH AVE'
p301
(I2
I0
F2225.0
F0.0
I2001
tp302
tp303
a(S'60 CORONA ST'
p304
(I1
I1
F2493.0
F5362.0
I1923
tp305
tp306
a(S'650 03RD AVE'
p307
(I2
I1
F2054.0
F2996.0
I1905
tp308
tp309
a(S'60 FORTUNA AVE'
p310
(I2
I1
F2000.0
F3680.0
I1947
tp311
tp312
a(S'3086 WASHINGTON ST'
p313
(I2
I2
F2390.0
F2565.0
I1900
tp314
tp315
a(S'1430 22ND AVE'
p316
(I1
I1
F1903.0
F3300.0
I1925
tp317
tp318
a(S'801 HAIGHT ST'
p319
(I4
I9
F5600.0
F2500.0
I1900
tp320
tp321
a(S'166 RALSTON ST'
p322
(I1
I1
F912.0
F2495.0
I1950
tp323
tp324
a(S'29 BROSNAN ST'
p325
(I1
I1
F1185.0
F1875.0
I1936
tp326
tp327
a(S'57 ELSIE ST'
p328
(I1
I1
F600.0
F1746.0
I1907
tp329
tp330
a(S'4220 CABRILLO ST'
p331
(I1
I1
F1225.0
F2500.0
I1925
tp332
tp333
a(S'1263 12TH AVE'
p334
(I2
I1
F1665.0
F3750.0
I1908
tp335
tp336
a(S'798 JAMESTOWN AVE'
p337
(I1
I1
F480.0
F2660.67
I1945
tp338
tp339
a(S'109 16TH AVE'
p340
(I0
I0
F1700.0
F0.0
I1912
tp341
tp342
a(S'722 MONTEREY BLVD'
p343
(I2
I2
F2525.0
F2500.0
I1953
tp344
tp345
a(S'15 BEMIS ST'
p346
(I1
I1
F861.0
F1663.0
I1949
tp347
tp348
a(S'1574 47TH AVE'
p349
(I1
I1
F1000.0
F2996.0
I1948
tp350
tp351
a(S'900 GILMAN AVE'
p352
(I3
I0
F750.0
F0.0
I2006
tp353
tp354
a(S'1221 06TH AVE'
p355
(I0
I0
F2233.0
F3000.0
I1914
tp356
tp357
a(S'2304 WASHINGTON ST'
p358
(I2
I1
F2629.0
F0.0
I1916
tp359
tp360
a(S'116 MARVIEW WAY'
p361
(I1
I1
F1100.0
F3210.0
I1958
tp362
tp363
a(S'100 PARKER AVE'
p364
(I1
I1
F884.0
F0.0
I1929
tp365
tp366
a(S'3248 21ST ST'
p367
(I0
I1
F1438.0
F0.0
I1997
tp368
tp369
a(S'2246 GREENWICH ST'
p370
(I2
I1
F1054.0
F0.0
I1911
tp371
tp372
a(S'1945 WASHINGTON ST'
p373
(I0
I1
F983.0
F0.0
I1987
tp374
tp375
a(S'2652 36TH AVE'
p376
(I1
I1
F1400.0
F2996.0
I1939
tp377
tp378
a(S'427 HURON AVE'
p379
(I1
I1
F1210.0
F2199.0
I1926
tp380
tp381
a(S'3345 FILLMORE ST'
p382
(I3
I12
F10989.0
F5222.0
I1964
tp383
tp384
a(S'330 CASITAS AVE'
p385
(I2
I1
F1874.0
F3895.0
I1940
tp386
tp387
a(S'423 WASHINGTON ST'
p388
(I0
I0
F2575.0
F0.0
I1983
tp389
tp390
a(S'1450 POST ST'
p391
(I0
I1
F565.0
F0.0
I1992
tp392
tp393
a(S'1891 33RD AVE'
p394
(I1
I1
F1100.0
F1729.7
I1941
tp395
tp396
a(S'999 GREEN ST'
p397
(I1
I1
F986.0
F0.0
I1964
tp398
tp399
a(S'2526 46TH AVE'
p400
(I1
I1
F800.0
F3000.0
I1943
tp401
tp402
a(S'85 WHITNEY ST'
p403
(I1
I1
F1012.0
F3123.0
I1900
tp404
tp405
a(S'2919 FILLMORE ST'
p406
(I2
I1
F2650.0
F1498.0
I1903
tp407
tp408
a(S'2075 SUTTER ST'
p409
(I2
I1
F1084.0
F0.0
I1992
tp410
tp411
a(S'4239 25TH ST'
p412
(I2
I1
F1474.0
F3049.5
I1907
tp413
tp414
a(S'2723 39TH AVE'
p415
(I1
I1
F1192.0
F3000.0
I1948
tp416
tp417
a(S'335 BERRY ST'
p418
(I1
I0
F921.0
F0.0
I2009
tp419
tp420
a(S'136 BENNINGTON ST'
p421
(I1
I1
F1061.0
F2500.0
I1907
tp422
tp423
a(S'930 PINE ST'
p424
(I1
I1
F715.0
F0.0
I1973
tp425
tp426
a(S'1483 SUTTER ST'
p427
(I0
I1
F1165.0
F0.0
I1993
tp428
tp429
a(S'349 07TH ST'
p430
(I1
I1
F14815.0
F15071.0
I1968
tp431
tp432
a(S'22 CHANCERY LN'
p433
(I2
I1
F1964.0
F1709.6
I1996
tp434
tp435
a(S'490 POST ST'
p436
(I17
I0
F970.0
F0.0
I1925
tp437
tp438
a(S'522 CARTER ST'
p439
(I0
I101
F112474.0
F0.0
I2004
tp440
tp441
a(S'4659 18TH ST'
p442
(I1
I0
F2211.0
F3025.0
I1906
tp443
tp444
a(S'1247 BRODERICK ST'
p445
(I3
I0
F1575.0
F1500.0
I1988
tp446
tp447
a(S'2662 18TH AVE'
p448
(I1
I1
F1466.0
F3000.0
I1936
tp449
tp450
a(S'2351 POWELL ST'
p451
(I0
I0
F578.0
F0.0
I1968
tp452
tp453
a(S'472 GATES ST'
p454
(I1
I1
F1125.0
F1751.0
I1925
tp455
tp456
a(S'1439 40TH AVE'
p457
(I1
I1
F1655.0
F2996.0
I1931
tp458
tp459
a(S'0 UNKNOWN '
p460
(I0
I0
F0.0
F27965.0
I1900
tp461
tp462
a(S'5 JAKEY CT'
p463
(I2
I1
F2004.0
F1379.0
I1985
tp464
tp465
a(S'481 DOLORES ST'
p466
(I0
I0
F1851.0
F0.0
I1908
tp467
tp468
a(S'690 CHESTNUT ST'
p469
(I0
I1
F1408.0
F0.0
I1997
tp470
tp471
a(S'1288 29TH AVE'
p472
(I2
I1
F1370.0
F2831.0
I1915
tp473
tp474
a(S'355 01ST ST'
p475
(I0
I0
F1408.0
F0.0
I2004
tp476
tp477
a(S'166 SPROULE LN'
p478
(I0
I0
F0.0
F1840.0
I0
tp479
tp480
a(S'1423 THOMAS AVE'
p481
(I1
I1
F1500.0
F2495.0
I1940
tp482
tp483
a(S'418 PERSIA AVE'
p484
(I2
I1
F1750.0
F2500.0
I1912
tp485
tp486
a(S'1963 29TH AVE'
p487
(I1
I1
F1941.0
F2996.0
I1939
tp488
tp489
a(S'1550 INNES AVE'
p490
(I1
I1
F1450.0
F2495.0
I1940
tp491
tp492
a(S'272 CAPP ST'
p493
(I2
I0
F6020.0
F0.0
I1988
tp494
tp495
a(S'263 TALBERT ST'
p496
(I1
I1
F1250.0
F1899.0
I1942
tp497
tp498
a(S'248 COLON AVE'
p499
(I1
I1
F1330.0
F3741.0
I1921
tp500
tp501
a(S'291 RUTLEDGE ST'
p502
(I2
I4
F3500.0
F7483.0
I1960
tp503
tp504
a(S'177 MAIDEN LN'
p505
(I2
I2
F4050.0
F1346.0
I1907
tp506
tp507
a(S'441 MASON ST'
p508
(I0
I1
F0.0
F0.0
I0
tp509
tp510
a(S'3921 GEARY BLVD'
p511
(I2
I1
F13232.0
F16500.0
I1988
tp512
tp513
a(S'820 MANSELL ST'
p514
(I1
I1
F1085.0
F2495.0
I1963
tp515
tp516
a(S'470 CLEMENTINA ST'
p517
(I1
I0
F618.0
F0.0
I2005
tp518
tp519
a(S'247 EDINBURGH ST'
p520
(I1
I1
F1241.0
F2500.0
I1923
tp521
tp522
a(S'1100 LOMBARD ST'
p523
(I3
I6
F5204.0
F3019.0
I1900
tp524
tp525
a(S'2041 SACRAMENTO ST'
p526
(I2
I1
F2446.0
F0.0
I1946
tp527
tp528
a(S'2212 CASTRO ST'
p529
(I3
I1
F3914.0
F2625.0
I2007
tp530
tp531
a(S'436 SILLIMAN ST'
p532
(I2
I1
F2692.0
F1800.0
I1986
tp533
tp534
a(S'511 EUREKA ST'
p535
(I2
I3
F3330.0
F2892.0
I1914
tp536
tp537
a(S'1219 16TH AVE'
p538
(I2
I2
F2718.0
F2996.0
I1925
tp539
tp540
a(S'760 35TH AVE'
p541
(I1
I2
F3210.0
F3598.0
I1965
tp542
tp543
a(S'1347 QUESADA AVE'
p544
(I1
I1
F1275.0
F2500.0
I1925
tp545
tp546
a(S'77 VAN NESS AVE'
p547
(I0
I0
F0.0
F0.0
I2008
tp548
tp549
a(S'2258 40TH AVE'
p550
(I1
I1
F1214.0
F2996.0
I1949
tp551
tp552
a(S'2315 DIVISADERO ST'
p553
(I0
I1
F1203.0
F0.0
I1962
tp554
tp555
a(S'127 WARD ST'
p556
(I1
I1
F1666.0
F2622.0
I1964
tp557
tp558
a(S'1226 FELTON ST'
p559
(I1
I1
F2053.0
F2500.0
I1975
tp560
tp561
a(S'2562 26TH AVE'
p562
(I1
I1
F2557.0
F3000.0
I1931
tp563
tp564
a(S'461 02ND ST'
p565
(I3
I1
F1789.0
F0.0
I1907
tp566
tp567
a(S'283 BRIGHT ST'
p568
(I1
I1
F897.0
F1498.0
I1954
tp569
tp570
a(S'301 MISSION ST'
p571
(I0
I0
F1485.0
F0.0
I2009
tp572
tp573
a(S'2430 VAN NESS AVE'
p574
(I2
I4
F3900.0
F3125.0
I1925
tp575
tp576
a(S'5732 MISSION ST'
p577
(I2
I3
F2500.0
F3206.0
I1951
tp578
tp579
a(S'224 BROAD ST'
p580
(I1
I1
F1037.0
F3123.0
I1951
tp581
tp582
a(S'142 BENNINGTON ST'
p583
(I1
I1
F1150.0
F2495.0
I1905
tp584
tp585
a(S'114 MONTICELLO ST'
p586
(I1
I1
F1482.0
F2500.0
I1962
tp587
tp588
a(S'213 BOCANA ST'
p589
(I1
I0
F515.0
F1498.0
I1910
tp590
tp591
a(S'1275 10TH AVE'
p592
(I2
I1
F2634.0
F3000.0
I1904
tp593
tp594
a(S'1955 16TH AVE'
p595
(I1
I1
F2140.0
F3998.0
I1936
tp596
tp597
a(S'1370 04TH AVE'
p598
(I2
I1
F2400.0
F2687.5
I1911
tp599
tp600
a(S'930 BAY ST'
p601
(I3
I9
F7260.0
F2940.0
I1925
tp602
tp603
a(S'200 DOLORES ST'
p604
(I2
I0
F1407.0
F0.0
I2014
tp605
tp606
a(S'441 MASON ST'
p607
(I0
I1
F0.0
F0.0
I0
tp608
tp609
a(S'1501 SLOAT BLVD'
p610
(I0
I0
F23100.0
F61208.0
I1993
tp611
tp612
a(S'2746 FILBERT ST'
p613
(I2
I1
F2220.0
F2683.0
I1910
tp614
tp615
a(S'28 BELCHER ST'
p616
(I3
I1
F3238.0
F3123.0
I1900
tp617
tp618
a(S'51 INVERNESS DR'
p619
(I1
I1
F1700.0
F2495.0
I1941
tp620
tp621
a(S'122 09TH ST'
p622
(I2
I2
F2447.0
F2833.25
I1924
tp623
tp624
a(S'14 ORD CT'
p625
(I1
I1
F1120.0
F2491.0
I1925
tp626
tp627
a(S'1630 SACRAMENTO ST'
p628
(I3
I6
F5886.0
F6724.38
I1912
tp629
tp630
a(S'71 06TH AVE'
p631
(I2
I1
F2326.0
F4080.0
I1908
tp632
tp633
a(S'3621 JUDAH ST'
p634
(I2
I2
F2307.0
F2500.0
I1945
tp635
tp636
a(S'80 CLARENDON AVE'
p637
(I2
I1
F2448.0
F6124.0
I1955
tp638
tp639
a(S'1 DANIEL BURNHAM CT'
p640
(I16
I1
F879.0
F0.0
I1988
tp641
tp642
a(S'512 27TH AVE'
p643
(I2
I6
F11550.0
F6000.0
I1923
tp644
tp645
a(S'245 CHURCH ST'
p646
(I1
I0
F0.0
F3123.0
I1935
tp647
tp648
a(S'5305 CALIFORNIA ST'
p649
(I2
I2
F1932.0
F2500.0
I1908
tp650
tp651
a(S'5098 MISSION ST'
p652
(I2
I0
F3875.0
F2308.0
I1936
tp653
tp654
a(S'467 URBANO DR'
p655
(I1
I1
F2925.0
F5998.0
I1927
tp656
tp657
a(S'1701 JACKSON ST'
p658
(I0
I1
F1072.0
F0.0
I2001
tp659
tp660
a(S'5160 DIAMOND HEIGHTS BLVD'
p661
(I1
I1
F1175.0
F0.0
I1972
tp662
tp663
a(S'572 02ND AVE'
p664
(I2
I2
F2685.0
F2996.0
I1922
tp665
tp666
a(S'2234 25TH AVE'
p667
(I1
I1
F1475.0
F2996.0
I1940
tp668
tp669
a(S'695 05TH ST'
p670
(I0
I0
F1227.0
F0.0
I0
tp671
tp672
a(S'710 POWELL ST'
p673
(I0
I1
F0.0
F0.0
I0
tp674
tp675
a(S'2351 POWELL ST'
p676
(I0
I0
F578.0
F0.0
I1968
tp677
tp678
a(S'71 BOARDMAN PL'
p679
(I0
I0
F0.0
F9783.0
I1993
tp680
tp681
a(S'1779 46TH AVE'
p682
(I1
I1
F850.0
F2962.0
I1941
tp683
tp684
a(S'155 BYXBEE ST'
p685
(I2
I1
F1550.0
F2495.0
I1941
tp686
tp687
a(S'2638 FULTON ST'
p688
(I2
I1
F2728.0
F2739.0
I1925
tp689
tp690
a(S'924 VIENNA ST'
p691
(I1
I1
F1234.0
F2509.0
I1914
tp692
tp693
a(S'350 BRODERICK ST'
p694
(I0
I0
F699.0
F0.0
I2007
tp695
tp696
a(S'31 LYDIA AVE'
p697
(I2
I1
F1626.0
F1500.0
I1998
tp698
tp699
a(S'1025 17TH ST'
p700
(I0
I1
F1215.0
F4133.0
I1999
tp701
tp702
a(S'408 SILVER AVE'
p703
(I2
I1
F2169.0
F2267.37
I1993
tp704
tp705
a(S'4630 FULTON ST'
p706
(I2
I1
F1820.0
F2495.0
I1921
tp707
tp708
a(S'388 BEALE ST'
p709
(I1
I1
F808.0
F0.0
I1999
tp710
tp711
a(S'44 MORRELL PL'
p712
(I2
I2
F1560.0
F1467.0
I1906
tp713
tp714
a(S'227 BROOKDALE AVE'
p715
(I1
I1
F1369.0
F2500.0
I1957
tp716
tp717
a(S'3749 MARKET ST'
p718
(I1
I2
F1845.0
F2073.0
I1941
tp719
tp720
a(S'80 MONTEREY BLVD'
p721
(I2
I2
F2302.0
F2500.0
I1915
tp722
tp723
a(S'162 CORA ST'
p724
(I1
I1
F1000.0
F2639.0
I1951
tp725
tp726
a(S'245 PIXLEY ST'
p727
(I1
I1
F879.0
F1333.5
I1907
tp728
tp729
a(S'49 POTOMAC ST'
p730
(I0
I1
F3299.0
F0.0
I1900
tp731
tp732
a(S'2808 MISSION ST'
p733
(I1
I2
F0.0
F3327.0
I1911
tp734
tp735
a(S'3342 LAGUNA ST'
p736
(I2
I3
F5362.0
F2500.0
I1927
tp737
tp738
a(S'1902 LYON ST'
p739
(I0
I1
F1451.0
F0.0
I1979
tp740
tp741
a(S'1496 39TH AVE'
p742
(I1
I1
F1075.0
F2374.0
I1938
tp743
tp744
a(S'400 28TH AVE'
p745
(I3
I12
F8436.0
F3249.0
I1925
tp746
tp747
a(S'146 RUSS ST'
p748
(I3
I6
F6890.0
F3000.0
I1909
tp749
tp750
a(S'151 ALICE B TOKLAS PL'
p751
(I8
I1
F1376.0
F0.0
I1920
tp752
tp753
a(S'2075 SUTTER ST'
p754
(I2
I1
F1084.0
F0.0
I1992
tp755
tp756
a(S'39 ENCLINE CT'
p757
(I1
I1
F1587.0
F2382.0
I1939
tp758
tp759
a(S'473 25TH AVE'
p760
(I2
I1
F2517.0
F3250.0
I1906
tp761
tp762
a(S'2242 26TH AVE'
p763
(I1
I1
F1500.0
F3000.0
I1928
tp764
tp765
a(S'551 02ND AVE'
p766
(I2
I2
F2050.0
F2996.0
I1903
tp767
tp768
a(S'1785 GENEVA AVE'
p769
(I1
I1
F799.0
F2737.5
I1946
tp770
tp771
a(S'27 BONITA ST'
p772
(I3
I5
F6172.0
F3062.0
I1909
tp773
tp774
a(S'420 FULTON ST'
p775
(I0
I0
F0.0
F0.0
I1974
tp776
tp777
a(S'1138 NORIEGA ST'
p778
(I1
I2
F1600.0
F2500.0
I1930
tp779
tp780
a(S'230 TOCOLOMA AVE'
p781
(I1
I1
F1000.0
F3097.0
I1934
tp782
tp783
a(S'1323 DE HARO ST'
p784
(I2
I2
F1475.0
F3333.0
I1913
tp785
tp786
a(S'1218 JAMESTOWN AVE'
p787
(I0
I0
F0.0
F348.0
I0
tp788
tp789
a(S'3816 19TH ST'
p790
(I2
I2
F2100.0
F1250.0
I1900
tp791
tp792
a(S'543 MANGELS AVE'
p793
(I1
I1
F915.0
F2495.0
I1927
tp794
tp795
a(S'1691 24TH AVE'
p796
(I1
I1
F1300.0
F2374.0
I1927
tp797
tp798
a(S'2143 39TH AVE'
p799
(I1
I1
F2200.0
F2996.0
I1954
tp800
tp801
a(S'2807 STEINER ST'
p802
(I2
I9
F5642.0
F3023.0
I1900
tp803
tp804
a(S'2190 29TH AVE'
p805
(I1
I1
F1162.0
F1750.0
I1949
tp806
tp807
a(S'130 HERNANDEZ AVE'
p808
(I0
I1
F0.0
F4290.0
I0
tp809
tp810
a(S'2230 QUINTARA ST'
p811
(I1
I1
F1267.0
F1875.0
I1948
tp812
tp813
a(S'1038 CHURCH ST'
p814
(I2
I0
F1510.0
F0.0
I1900
tp815
tp816
a(S'915 ELIZABETH ST'
p817
(I1
I1
F838.0
F975.0
I1937
tp818
tp819
a(S'346 NAPLES ST'
p820
(I1
I1
F1250.0
F2495.0
I1927
tp821
tp822
a(S'226 TEDDY AVE'
p823
(I1
I1
F1050.0
F2500.0
I1951
tp824
tp825
a(S'574 HICKORY ST'
p826
(I3
I6
F3375.0
F1375.0
I1911
tp827
tp828
a(S'1325 INDIANA ST'
p829
(I2
I0
F1121.0
F0.0
I2002
tp830
tp831
a(S'359 CHURCH ST'
p832
(I2
I2
F3438.0
F3125.0
I1905
tp833
tp834
a(S'2374 14TH AVE'
p835
(I1
I1
F1680.0
F3600.0
I1949
tp836
tp837
a(S'550 SOUTH VAN NESS AVE'
p838
(I1
I1
F796.0
F0.0
I1992
tp839
tp840
a(S'610 15TH AVE'
p841
(I2
I1
F2300.0
F2204.0
I1916
tp842
tp843
a(S'0 UNKNOWN '
p844
(I0
I0
F0.0
F27965.0
I1900
tp845
tp846
a(S'250 KING ST'
p847
(I0
I0
F688.0
F0.0
I2004
tp848
tp849
a(S'2200 31ST AVE'
p850
(I1
I1
F1040.0
F1999.0
I1938
tp851
tp852
a(S'437 HYDE ST'
p853
(I4
I11
F5998.0
F1979.76
I1922
tp854
tp855
a(S'596 29TH ST'
p856
(I0
I0
F847.0
F0.0
I1911
tp857
tp858
a(S'4670 18TH ST'
p859
(I2
I3
F3000.0
F2617.0
I1909
tp860
tp861
a(S'2142 CASTRO ST'
p862
(I2
I1
F2155.0
F2626.0
I1910
tp863
tp864
a(S'32 LEDYARD ST'
p865
(I1
I1
F1436.0
F2456.0
I1940
tp866
tp867
a(S'75 RAYCLIFF TER'
p868
(I2
I1
F4420.0
F4260.0
I1951
tp869
tp870
a(S'1015 BAKER ST'
p871
(I1
I1
F1561.0
F3802.0
I1947
tp872
tp873
a(S'58 ALVARADO ST'
p874
(I2
I5
F4725.0
F2850.0
I1907
tp875
tp876
a(S'835 35TH AVE'
p877
(I1
I1
F1855.0
F2996.0
I1925
tp878
tp879
a(S'439 08TH AVE'
p880
(I0
I0
F825.0
F0.0
I1906
tp881
tp882
a(S'1091 MISSION ST'
p883
(I5
I6
F28480.0
F6398.0
I1912
tp884
tp885
a(S'200 BRANNAN ST'
p886
(I3
I0
F2042.0
F0.0
I2004
tp887
tp888
a(S'2323 BRODERICK ST'
p889
(I1
I1
F1724.0
F0.0
I1980
tp890
tp891
a(S'150 LOMBARD ST'
p892
(I1
I1
F1211.0
F0.0
I1975
tp893
tp894
a(S'130 MEADOWBROOK DR'
p895
(I1
I1
F1644.0
F2495.0
I1941
tp896
tp897
a(S'174 BEAUMONT AVE'
p898
(I2
I1
F3835.0
F3297.0
I1936
tp899
tp900
a(S'2627 39TH AVE'
p901
(I1
I1
F1512.0
F2996.0
I1948
tp902
tp903
a(S'390 VALDEZ AVE'
p904
(I1
I1
F1510.0
F4421.0
I1926
tp905
tp906
a(S'1478 28TH AVE'
p907
(I1
I1
F1390.0
F3000.0
I1930
tp908
tp909
a(S'3235 VICENTE ST'
p910
(I2
I6
F3000.0
F3750.0
I1954
tp911
tp912
a(S'701 NEWHALL ST'
p913
(I1
I1
F1700.0
F2500.0
I1940
tp914
tp915
a(S'655 HAMILTON ST'
p916
(I1
I1
F1960.0
F2500.0
I1964
tp917
tp918
a(S'229 GRANADA AVE'
p919
(I1
I1
F468.0
F2809.0
I1904
tp920
tp921
a(S'1555 34TH AVE'
p922
(I1
I1
F2130.0
F3276.0
I1933
tp923
tp924
a(S'1651 11TH AVE'
p925
(I2
I1
F2550.0
F3000.0
I1912
tp926
tp927
a(S'546 28TH AVE'
p928
(I1
I1
F1825.0
F1799.0
I1922
tp929
tp930
a(S'3524 21ST ST'
p931
(I2
I2
F3350.0
F2848.0
I1900
tp932
tp933
a(S'37 TOPAZ WAY'
p934
(I2
I2
F3905.0
F3297.0
I1969
tp935
tp936
a(S'1711 MASON ST'
p937
(I3
I3
F3420.0
F1672.0
I1923
tp938
tp939
a(S'59 DELMAR ST'
p940
(I2
I2
F2288.0
F2000.0
I1906
tp941
tp942
a(S'126 FAIR OAKS ST'
p943
(I0
I0
F0.0
F3580.0
I1900
tp944
tp945
a(S'211 RICHLAND AVE'
p946
(I1
I1
F1025.0
F2500.0
I1910
tp947
tp948
a(S'2136 VICENTE ST'
p949
(I1
I1
F1102.0
F1873.0
I1954
tp950
tp951
a(S'2187 GOLDEN GATE AVE'
p952
(I1
I1
F1200.0
F2495.0
I1909
tp953
tp954
a(S'255 ELLSWORTH ST'
p955
(I1
I1
F750.0
F1746.0
I1909
tp956
tp957
a(S'1569 UNDERWOOD AVE'
p958
(I1
I1
F1010.0
F2495.0
I1915
tp959
tp960
a(S'215 PEABODY ST'
p961
(I2
I2
F2760.0
F2639.0
I1950
tp962
tp963
a(S'1990 SILVER AVE'
p964
(I1
I1
F966.0
F1603.0
I1939
tp965
tp966
a(S'577 14TH ST'
p967
(I1
I1
F1180.0
F2495.0
I1941
tp968
tp969
a(S'2610 LAKE ST'
p970
(I2
I1
F906.0
F10800.0
I1917
tp971
tp972
a(S'293 SURREY ST'
p973
(I1
I1
F1344.0
F3184.0
I1900
tp974
tp975
a(S'73 MONTEZUMA ST'
p976
(I1
I1
F2171.0
F1750.0
I1928
tp977
tp978
a(S'437 GATES ST'
p979
(I2
I1
F700.0
F1751.0
I1908
tp980
tp981
a(S'1 HAWTHORNE ST'
p982
(I0
I0
F846.0
F0.0
I2010
tp983
tp984
a(S'240 EDGEWOOD AVE'
p985
(I2
I1
F4159.0
F7801.0
I1968
tp986
tp987
a(S'425 PERU AVE'
p988
(I1
I1
F1182.0
F2500.0
I1925
tp989
tp990
a(S'106 NEVADA ST'
p991
(I2
I2
F1750.0
F2421.0
I1890
tp992
tp993
a(S'1347 PORTOLA DR'
p994
(I3
I1
F3234.0
F6333.0
I1927
tp995
tp996
a(S'333 GRANT AVE'
p997
(I6
I0
F895.0
F0.0
I1908
tp998
tp999
a(S'441 MASON ST'
p1000
(I0
I1
F0.0
F0.0
I0
tp1001
tp1002
a(S'403 ARGUELLO BLVD'
p1003
(I3
I4
F12872.0
F5000.0
I1908
tp1004
tp1005
a(S'2049 23RD AVE'
p1006
(I1
I1
F800.0
F3000.0
I1943
tp1007
tp1008
a(S'2578 33RD AVE'
p1009
(I1
I1
F1628.0
F3000.0
I1931
tp1010
tp1011
a(S'48 REDDY ST'
p1012
(I0
I1
F1300.0
F2500.0
I1989
tp1013
tp1014
a(S'1605 BAKER ST'
p1015
(I1
I0
F946.0
F0.0
I1890
tp1016
tp1017
a(S'466 CLEMENTINA ST'
p1018
(I1
I0
F493.0
F0.0
I2004
tp1019
tp1020
a(S'315 PRINCETON ST'
p1021
(I1
I1
F2110.0
F2500.0
I1968
tp1022
tp1023
a(S'67 SEWARD ST'
p1024
(I2
I1
F2550.0
F2899.0
I1998
tp1025
tp1026
a(S'301 MISSION ST'
p1027
(I0
I0
F1485.0
F0.0
I2009
tp1028
tp1029
a(S'4944 ANZA ST'
p1030
(I1
I1
F1100.0
F2495.0
I1925
tp1031
tp1032
a(S'1756 WASHINGTON ST'
p1033
(I3
I3
F5139.0
F2495.0
I1908
tp1034
tp1035
a(S'410 JESSIE ST'
p1036
(I1
I0
F631.0
F0.0
I1926
tp1037
tp1038
a(S'360 ROLPH ST'
p1039
(I1
I1
F1613.0
F2160.0
I1924
tp1040
tp1041
a(S'1308 DIAMOND ST'
p1042
(I1
I1
F1025.0
F2000.0
I1940
tp1043
tp1044
a(S'164 TOWNSEND ST'
p1045
(I2
I0
F2160.0
F0.0
I1997
tp1046
tp1047
a(S'1651 GREENWICH ST'
p1048
(I0
I1
F709.0
F0.0
I1900
tp1049
tp1050
a(S'278 27TH AVE'
p1051
(I3
I12
F12192.0
F5998.0
I1961
tp1052
tp1053
a(S'165 BELLA VISTA WAY'
p1054
(I1
I1
F1381.0
F2631.0
I1942
tp1055
tp1056
a(S'1776 SACRAMENTO ST'
p1057
(I0
I1
F806.0
F0.0
I1992
tp1058
tp1059
a(S'4363 24TH ST'
p1060
(I2
I1
F1625.0
F2748.0
I1914
tp1061
tp1062
a(S'801 CABRILLO ST'
p1063
(I2
I4
F4600.0
F2375.0
I1915
tp1064
tp1065
a(S'1552 09TH AVE'
p1066
(I0
I0
F1195.0
F0.0
I1905
tp1067
tp1068
a(S'1556 36TH AVE'
p1069
(I2
I1
F1825.0
F2996.0
I1932
tp1070
tp1071
a(S'1 POLK ST'
p1072
(I20
I181
F162220.0
F22340.0
I2008
tp1073
tp1074
a(S'355 01ST ST'
p1075
(I0
I0
F1408.0
F0.0
I2004
tp1076
tp1077
a(S'681 48TH AVE'
p1078
(I3
I6
F3720.0
F5802.0
I1960
tp1079
tp1080
a(S'479 10TH ST'
p1081
(I0
I0
F2714.0
F4800.0
I1990
tp1082
tp1083
a(S'2363 39TH AVE'
p1084
(I1
I1
F1362.0
F3000.0
I1955
tp1085
tp1086
a(S'2521 MCALLISTER ST'
p1087
(I3
I2
F2880.0
F2324.0
I1900
tp1088
tp1089
a(S'711 MARINA BLVD'
p1090
(I3
I1
F2609.0
F1408.85
I1936
tp1091
tp1092
a(S'489 MOLIMO DR'
p1093
(I2
I1
F1650.0
F3929.0
I1956
tp1094
tp1095
a(S'1624 VALLEJO ST'
p1096
(I3
I11
F9040.0
F6875.0
I1890
tp1097
tp1098
a(S'555 04TH ST'
p1099
(I0
I0
F694.0
F0.0
I0
tp1100
tp1101
a(S'3550 CALIFORNIA ST'
p1102
(I3
I9
F9588.0
F4573.0
I1924
tp1103
tp1104
a(S'575 VALLEY ST'
p1105
(I4
I1
F4400.0
F2848.0
I2003
tp1106
tp1107
a(S'170 BEACON ST'
p1108
(I1
I1
F804.0
F5845.0
I1958
tp1109
tp1110
a(S'913 DOLORES ST'
p1111
(I2
I3
F4257.0
F2378.0
I1900
tp1112
tp1113
a(S'30 IDORA AVE'
p1114
(I1
I1
F1652.0
F3116.0
I1936
tp1115
tp1116
a(S'1770 45TH AVE'
p1117
(I1
I1
F1204.0
F3000.0
I1947
tp1118
tp1119
a(S'677 ARGUELLO BLVD'
p1120
(I0
I1
F846.0
F0.0
I1998
tp1121
tp1122
a(S'830 EDINBURGH ST'
p1123
(I1
I1
F1273.0
F2495.0
I1924
tp1124
tp1125
a(S'1338 44TH AVE'
p1126
(I1
I1
F1510.0
F2996.0
I1926
tp1127
tp1128
a(S'915 ASHBURY ST'
p1129
(I2
I1
F2300.0
F2656.25
I1905
tp1130
tp1131
a(S'2608 CLEMENT ST'
p1132
(I2
I2
F2216.0
F2495.0
I1946
tp1133
tp1134
a(S'714 BRODERICK ST'
p1135
(I3
I3
F5397.0
F2199.0
I1900
tp1136
tp1137
a(S'1468 LA PLAYA '
p1138
(I2
I6
F4498.0
F2996.0
I1970
tp1139
tp1140
a(S'2481 HARRISON ST'
p1141
(I2
I3
F2768.0
F2600.0
I1900
tp1142
tp1143
a(S'1644 CLAY ST'
p1144
(I3
I12
F8325.0
F4146.0
I1912
tp1145
tp1146
a(S'1631 GROVE ST'
p1147
(I2
I1
F2420.0
F3436.0
I1910
tp1148
tp1149
a(S'940 FILLMORE ST'
p1150
(I3
I90
F78912.0
F0.0
I1971
tp1151
tp1152
a(S'1845 28TH AVE'
p1153
(I1
I1
F1305.0
F2996.0
I1938
tp1154
tp1155
a(S'105 HANOVER ST'
p1156
(I1
I1
F1065.0
F1750.0
I1960
tp1157
tp1158
a(S'874 34TH AVE'
p1159
(I2
I2
F3750.0
F4499.0
I1926
tp1160
tp1161
a(S'381 10TH AVE'
p1162
(I2
I4
F4048.0
F3000.0
I1971
tp1163
tp1164
a(S'2835 WASHINGTON ST'
p1165
(I2
I1
F2693.0
F3514.0
I1900
tp1166
tp1167
a(S'441 MASON ST'
p1168
(I0
I1
F0.0
F0.0
I0
tp1169
tp1170
a(S'601 ALABAMA ST'
p1171
(I0
I0
F1430.0
F0.0
I2009
tp1172
tp1173
a(S'345 CONGDON ST'
p1174
(I1
I1
F983.0
F1276.0
I1951
tp1175
tp1176
a(S'140 GRANVILLE WAY'
p1177
(I2
I1
F2167.0
F3197.0
I1924
tp1178
tp1179
a(S'640 LAGUNA ST'
p1180
(I2
I3
F2970.0
F1920.0
I1900
tp1181
tp1182
a(S'348 CHURCH ST'
p1183
(I0
I1
F830.0
F0.0
I1995
tp1184
tp1185
a(S'205 OAK PARK DR'
p1186
(I1
I1
F1239.0
F2718.0
I1959
tp1187
tp1188
a(S'812 COLBY ST'
p1189
(I1
I1
F1621.0
F0.0
I1977
tp1190
tp1191
a(S'52 WHITE ST'
p1192
(I2
I1
F2075.0
F1123.0
I1928
tp1193
tp1194
a(S'87 MOLIMO DR'
p1195
(I1
I1
F1134.0
F2674.0
I1953
tp1196
tp1197
a(S'805 AMAZON AVE'
p1198
(I1
I1
F1131.0
F2561.0
I1908
tp1199
tp1200
a(S'624 SAN BRUNO AVE'
p1201
(I1
I1
F1257.0
F2600.0
I1907
tp1202
tp1203
a(S'700 GREAT HWY'
p1204
(I2
I2
F2717.0
F2555.0
I1990
tp1205
tp1206
a(S'975 LE CONTE AVE'
p1207
(I1
I1
F775.0
F2604.0
I1941
tp1208
tp1209
a(S'186 PARQUE DR'
p1210
(I1
I1
F1081.0
F2674.0
I1945
tp1211
tp1212
a(S'100 AVALON AVE'
p1213
(I1
I1
F1763.0
F1875.0
I1925
tp1214
tp1215
a(S'418 SAN MARCOS AVE'
p1216
(I0
I0
F0.0
F2718.0
I0
tp1217
tp1218
a(S'363 JOOST AVE'
p1219
(I2
I1
F1622.0
F2495.0
I1947
tp1220
tp1221
a(S'594 TEXAS ST'
p1222
(I1
I1
F1044.0
F2495.0
I1928
tp1223
tp1224
a(S'388 BEALE ST'
p1225
(I1
I1
F808.0
F0.0
I1999
tp1226
tp1227
a(S'2243 29TH AVE'
p1228
(I1
I1
F1200.0
F3000.0
I1940
tp1229
tp1230
a(S'5160 DIAMOND HEIGHTS BLVD'
p1231
(I1
I1
F1175.0
F0.0
I1972
tp1232
tp1233
a(S'1 POWELL ST'
p1234
(I6
I0
F883.0
F0.0
I2005
tp1235
tp1236
a(S'171 GRAYSTONE TER'
p1237
(I2
I1
F1783.0
F1851.0
I1940
tp1238
tp1239
a(S'410 JESSIE ST'
p1240
(I1
I0
F631.0
F0.0
I1926
tp1241
tp1242
a(S'5201 03RD ST'
p1243
(I1
I1
F4400.0
F8753.0
I1987
tp1244
tp1245
a(S'1177 CALIFORNIA ST'
p1246
(I0
I1
F411.0
F0.0
I1978
tp1247
tp1248
a(S'2163 QUESADA AVE'
p1249
(I1
I1
F1196.0
F2500.0
I1960
tp1250
tp1251
a(S'38 MORRELL PL'
p1252
(I3
I3
F3090.0
F2757.0
I1900
tp1253
tp1254
a(S'1434 THOMAS AVE'
p1255
(I2
I1
F1515.0
F2500.0
I1910
tp1256
tp1257
a(S'120 BUENA VISTA TER'
p1258
(I2
I2
F2496.0
F2748.0
I1906
tp1259
tp1260
a(S'163 GALEWOOD CIR'
p1261
(I2
I1
F2300.0
F0.0
I1979
tp1262
tp1263
a(S'75 SUMMIT WAY'
p1264
(I0
I0
F0.0
F2860.0
I0
tp1265
tp1266
a(S'1930 EDDY ST'
p1267
(I0
I1
F1097.0
F0.0
I1990
tp1268
tp1269
a(S'371 25TH AVE'
p1270
(I1
I1
F715.0
F0.0
I1981
tp1271
tp1272
a(S'2330 09TH AVE'
p1273
(I2
I1
F2400.0
F3001.0
I1937
tp1274
tp1275
a(S'631 FOLSOM ST'
p1276
(I1
I0
F1190.0
F0.0
I2009
tp1277
tp1278
a(S'843 31ST AVE'
p1279
(I1
I1
F2371.0
F3000.0
I1926
tp1280
tp1281
a(S'1035 GRANT AVE'
p1282
(I2
I5
F7925.0
F2475.0
I1953
tp1283
tp1284
a(S'485 EUREKA ST'
p1285
(I1
I1
F2036.0
F2892.0
I1931
tp1286
tp1287
a(S'542 CHENERY ST'
p1288
(I2
I1
F1612.0
F2500.0
I1916
tp1289
tp1290
a(S'2251 39TH AVE'
p1291
(I1
I1
F1600.0
F3000.0
I1948
tp1292
tp1293
a(S'315 HOLLY PARK CIR'
p1294
(I2
I1
F1452.0
F2757.0
I1905
tp1295
tp1296
a(S'810 JONES ST'
p1297
(I4
I21
F14580.0
F3781.0
I1916
tp1298
tp1299
a(S'839 PERU AVE'
p1300
(I1
I1
F1388.0
F2996.0
I1953
tp1301
tp1302
a(S'251 ATHENS ST'
p1303
(I2
I1
F1856.0
F2495.0
I1956
tp1304
tp1305
a(S'772 PARIS ST'
p1306
(I1
I1
F1661.0
F2474.0
I1925
tp1307
tp1308
a(S'2200 CHESTNUT ST'
p1309
(I1
I1
F3575.0
F3960.0
I1972
tp1310
tp1311
a(S'851 INDIANA ST'
p1312
(I1
I0
F1610.0
F0.0
I2009
tp1313
tp1314
a(S'2921 MORAGA ST'
p1315
(I1
I1
F1380.0
F2500.0
I1939
tp1316
tp1317
a(S'5600 03RD ST'
p1318
(I1
I0
F2901.0
F0.0
I2010
tp1319
tp1320
a(S'300 BERRY ST'
p1321
(I0
I0
F856.0
F0.0
I2009
tp1322
tp1323
a(S'808 HAIGHT ST'
p1324
(I1
I0
F1515.0
F0.0
I1895
tp1325
tp1326
a(S'80 SANTA CRUZ AVE'
p1327
(I1
I1
F875.0
F2609.0
I1955
tp1328
tp1329
a(S'2232 GREEN ST'
p1330
(I3
I1
F1790.0
F0.0
I1910
tp1331
tp1332
a(S'1575 15TH ST'
p1333
(I0
I0
F0.0
F33898.0
I1900
tp1334
tp1335
a(S'135 BRIGHTON AVE'
p1336
(I1
I1
F672.0
F2825.0
I1906
tp1337
tp1338
a(S'243 FLOOD AVE'
p1339
(I2
I1
F1376.0
F2809.0
I1900
tp1340
tp1341
a(S'601 VAN NESS AVE'
p1342
(I1
I1
F489.0
F0.0
I1982
tp1343
tp1344
a(S'451 VIENNA ST'
p1345
(I1
I1
F2274.0
F2500.0
I1900
tp1346
tp1347
a(S'10 WATT AVE'
p1348
(I2
I0
F2451.0
F2131.0
I2004
tp1349
tp1350
a(S'3315 JACKSON ST'
p1351
(I0
I1
F1959.0
F0.0
I1905
tp1352
tp1353
a(S'2574 46TH AVE'
p1354
(I1
I1
F825.0
F3000.0
I1942
tp1355
tp1356
a(S'170 SANTA ROSA AVE'
p1357
(I1
I1
F1600.0
F2996.0
I1925
tp1358
tp1359
a(S'705 FOERSTER ST'
p1360
(I0
I1
F0.0
F2600.0
I0
tp1361
tp1362
a(S'1000 NORTH POINT ST'
p1363
(I18
I0
F582.0
F0.0
I1963
tp1364
tp1365
a(S'255 SAN BENITO WAY'
p1366
(I2
I1
F2147.0
F4996.0
I1929
tp1367
tp1368
a(S'315 AVILA ST'
p1369
(I1
I1
F1475.0
F3018.0
I1925
tp1370
tp1371
a(S'216 CLAREMONT BLVD'
p1372
(I1
I1
F1082.0
F3070.0
I1925
tp1373
tp1374
a(S'1117 OCEAN AVE'
p1375
(I0
I0
F1200.0
F0.0
I2005
tp1376
tp1377
a(S'52 COLLINGWOOD ST'
p1378
(I2
I0
F1162.0
F0.0
I1954
tp1379
tp1380
a(S'2351 LAGUNA ST'
p1381
(I2
I2
F2550.0
F2247.0
I1939
tp1382
tp1383
a(S'930 NORIEGA ST'
p1384
(I1
I1
F2681.0
F3200.0
I1937
tp1385
tp1386
a(S'401 ARGONAUT AVE'
p1387
(I2
I1
F1726.0
F1428.0
I1963
tp1388
tp1389
a(S'1434 30TH AVE'
p1390
(I1
I1
F1660.0
F2996.0
I1928
tp1391
tp1392
a(S'465 10TH ST'
p1393
(I0
I1
F1840.0
F0.0
I1924
tp1394
tp1395
a(S'1858 27TH AVE'
p1396
(I1
I1
F1517.0
F2962.0
I1939
tp1397
tp1398
a(S'1718 30TH AVE'
p1399
(I1
I1
F1573.0
F2996.0
I1939
tp1400
tp1401
a(S'18 ELLIS ST'
p1402
(I2
I2
F16987.0
F5280.0
I1973
tp1403
tp1404
a(S'2368 30TH AVE'
p1405
(I2
I1
F2412.0
F3000.0
I1928
tp1406
tp1407
a(S'290 17TH AVE'
p1408
(I2
I6
F4338.0
F3000.0
I1963
tp1409
tp1410
a(S'772 GIRARD ST'
p1411
(I1
I1
F1473.0
F3000.0
I1963
tp1412
tp1413
a(S'126 AMHERST ST'
p1414
(I1
I1
F1425.0
F2996.0
I1975
tp1415
tp1416
a(S'859 WISCONSIN ST'
p1417
(I1
I1
F1807.0
F2495.0
I1926
tp1418
tp1419
a(S'1701 JACKSON ST'
p1420
(I0
I1
F1072.0
F0.0
I2001
tp1421
tp1422
a(S'4101 21ST ST'
p1423
(I1
I0
F1079.0
F0.0
I1924
tp1424
tp1425
a(S'55 07TH AVE'
p1426
(I0
I1
F1165.0
F5700.0
I1904
tp1427
tp1428
a(S'1067 POST ST'
p1429
(I0
I0
F0.0
F3659.0
I1900
tp1430
tp1431
a(S'185 STRATFORD DR'
p1432
(I1
I1
F1353.0
F3767.0
I1942
tp1433
tp1434
a(S'1325 HOWARD ST'
p1435
(I1
I2
F8200.0
F8200.0
I1919
tp1436
tp1437
a(S'927 SANCHEZ ST'
p1438
(I1
I1
F1095.0
F2250.0
I1900
tp1439
tp1440
a(S'246 02ND ST'
p1441
(I1
I1
F668.0
F0.0
I2000
tp1442
tp1443
a(S'135 PARIS ST'
p1444
(I2
I1
F2280.0
F2500.0
I1900
tp1445
tp1446
a(S'2 WEST CLAY ST'
p1447
(I3
I1
F5112.0
F9474.0
I1912
tp1448
tp1449
a(S'3439 SACRAMENTO ST'
p1450
(I2
I1
F2449.0
F0.0
I2000
tp1451
tp1452
a(S'143 02ND AVE'
p1453
(I1
I0
F1999.0
F2996.0
I1896
tp1454
tp1455
a(S'49 MISSOURI ST'
p1456
(I0
I1
F1349.0
F0.0
I1997
tp1457
tp1458
a(S'92 CAMBRIDGE ST'
p1459
(I1
I1
F850.0
F2448.0
I1943
tp1460
tp1461
a(S'1927 21ST AVE'
p1462
(I1
I1
F1125.0
F3000.0
I1938
tp1463
tp1464
a(S'675 06TH AVE'
p1465
(I2
I2
F2750.0
F2996.0
I1907
tp1466
tp1467
a(S'1370 36TH AVE'
p1468
(I1
I1
F2282.0
F2996.0
I1940
tp1469
tp1470
a(S'635 34TH AVE'
p1471
(I2
I2
F2926.0
F2996.0
I1960
tp1472
tp1473
a(S'786 21ST AVE'
p1474
(I2
I4
F4456.0
F3698.0
I1921
tp1475
tp1476
a(S'1178 GENEVA AVE'
p1477
(I1
I1
F1750.0
F2500.0
I1927
tp1478
tp1479
a(S'335 HEAD ST'
p1480
(I1
I1
F2726.0
F2500.0
I1992
tp1481
tp1482
a(S'70 DEMING ST'
p1483
(I2
I3
F3074.0
F2500.0
I1959
tp1484
tp1485
a(S'1880 BUSH ST'
p1486
(I2
I0
F934.0
F0.0
I1900
tp1487
tp1488
a(S'148 HIGHLAND AVE'
p1489
(I1
I1
F1517.0
F2495.0
I1920
tp1490
tp1491
a(S'415 GEARY ST'
p1492
(I4
I1
F0.0
F14906.0
I1909
tp1493
tp1494
a(S'255 BERRY ST'
p1495
(I0
I0
F1770.0
F0.0
I2004
tp1496
tp1497
a(S'10 HILLWAY AVE'
p1498
(I2
I1
F1730.0
F2495.0
I1916
tp1499
tp1500
a(S'4950 FULTON ST'
p1501
(I3
I15
F12300.0
F5000.0
I1937
tp1502
tp1503
a(S'1359 22ND AVE'
p1504
(I1
I1
F1932.0
F3236.0
I1923
tp1505
tp1506
a(S'1919 JUDAH ST'
p1507
(I1
I1
F1959.0
F2500.0
I1923
tp1508
tp1509
a(S'325 19TH AVE'
p1510
(I2
I2
F2700.0
F3000.0
I1909
tp1511
tp1512
a(S'3224 HARRISON ST'
p1513
(I2
I1
F1878.0
F2750.0
I1900
tp1514
tp1515
a(S'1931 NORIEGA ST'
p1516
(I3
I3
F2961.0
F2450.0
I1945
tp1517
tp1518
a(S'1000 NORTH POINT ST'
p1519
(I18
I0
F582.0
F0.0
I1963
tp1520
tp1521
a(S'1255 DE HARO ST'
p1522
(I4
I2
F4000.0
F3000.0
I1987
tp1523
tp1524
a(S'267 BRIGHTON AVE'
p1525
(I2
I1
F3489.0
F2812.5
I2002
tp1526
tp1527
a(S'1 HAWTHORNE ST'
p1528
(I0
I0
F846.0
F0.0
I2010
tp1529
tp1530
a(S'1834 HYDE ST'
p1531
(I2
I2
F2090.0
F2812.61
I1906
tp1532
tp1533
a(S'347 LIBERTY ST'
p1534
(I3
I5
F4050.0
F2848.0
I1900
tp1535
tp1536
a(S'2840 FRANKLIN ST'
p1537
(I0
I0
F1273.0
F0.0
I1912
tp1538
tp1539
a(S'829 VERMONT ST'
p1540
(I1
I2
F1988.0
F3297.0
I1931
tp1541
tp1542
a(S'1080 SUTTER ST'
p1543
(I1
I0
F1330.0
F0.0
I2014
tp1544
tp1545
a(S'1483 SUTTER ST'
p1546
(I0
I1
F1165.0
F0.0
I1993
tp1547
tp1548
a(S'893 CORBETT AVE'
p1549
(I2
I2
F2370.0
F2178.0
I1951
tp1550
tp1551
a(S'1240 BANCROFT AVE'
p1552
(I0
I0
F0.0
F4996.0
I0
tp1553
tp1554
a(S'1260 CLAY ST'
p1555
(I0
I1
F541.0
F0.0
I1950
tp1556
tp1557
a(S'594 ARKANSAS ST'
p1558
(I1
I1
F1311.0
F2766.0
I1916
tp1559
tp1560
a(S'651 GATES ST'
p1561
(I1
I1
F1375.0
F1751.0
I1948
tp1562
tp1563
a(S'1951 32ND AVE'
p1564
(I1
I1
F1125.0
F2996.0
I1948
tp1565
tp1566
a(S'140 FAITH ST'
p1567
(I1
I1
F1526.0
F1750.0
I1992
tp1568
tp1569
a(S'7 SEYMOUR ST'
p1570
(I2
I1
F1604.0
F2247.0
I1869
tp1571
tp1572
a(S'546 12TH AVE'
p1573
(I2
I1
F1780.0
F3000.0
I1913
tp1574
tp1575
a(S'260 KING ST'
p1576
(I0
I0
F688.0
F0.0
I2004
tp1577
tp1578
a(S'1003 ANZA ST'
p1579
(I2
I5
F5150.0
F2374.0
I1916
tp1580
tp1581
a(S'246 VIENNA ST'
p1582
(I1
I1
F1125.0
F2500.0
I1924
tp1583
tp1584
a(S'1200 CALIFORNIA ST'
p1585
(I27
I0
F2060.0
F0.0
I1962
tp1586
tp1587
a(S'2701 VAN NESS AVE'
p1588
(I7
I1
F528.0
F0.0
I1929
tp1589
tp1590
a(S'1500 KIRKHAM ST'
p1591
(I2
I4
F3890.0
F2375.0
I1930
tp1592
tp1593
a(S'422 23RD AVE'
p1594
(I2
I4
F3730.0
F3000.0
I1922
tp1595
tp1596
a(S'1209 21ST AVE'
p1597
(I2
I2
F2280.0
F1999.0
I1945
tp1598
tp1599
a(S'328 HOFFMAN AVE'
p1600
(I2
I1
F1901.0
F2500.0
I1911
tp1601
tp1602
a(S'1 CLARENCE PL'
p1603
(I4
I1
F955.0
F0.0
I1997
tp1604
tp1605
a(S'186 DUBOCE AVE'
p1606
(I2
I2
F2710.0
F1873.0
I1922
tp1607
tp1608
a(S'110 LIBERTY ST'
p1609
(I2
I1
F1405.0
F2850.0
I1882
tp1610
tp1611
a(S'2832 UNION ST'
p1612
(I2
I1
F2475.0
F3075.0
I1914
tp1613
tp1614
a(S'411 BADEN ST'
p1615
(I2
I1
F2750.0
F3125.0
I1986
tp1616
tp1617
a(S'77 CUMBERLAND ST'
p1618
(I0
I0
F1326.0
F0.0
I1909
tp1619
tp1620
a(S'654 37TH AVE'
p1621
(I2
I2
F2700.0
F3297.0
I1947
tp1622
tp1623
a(S'2270 19TH AVE'
p1624
(I1
I1
F1290.0
F2250.0
I1927
tp1625
tp1626
a(S'1852 24TH AVE'
p1627
(I1
I1
F1395.0
F2996.0
I1939
tp1628
tp1629
a(S'0 UNKNOWN '
p1630
(I0
I0
F0.0
F27965.0
I1900
tp1631
tp1632
a(S'43 JASPER PL'
p1633
(I3
I3
F3360.0
F1241.0
I1910
tp1634
tp1635
a(S'421 14TH ST'
p1636
(I3
I0
F1024.0
F3900.0
I1924
tp1637
tp1638
a(S'2222 HYDE ST'
p1639
(I7
I0
F2920.0
F0.0
I1920
tp1640
tp1641
a(S'325 CHINA BASIN ST'
p1642
(I3
I0
F1488.0
F0.0
I2008
tp1643
tp1644
a(S'441 MASON ST'
p1645
(I0
I1
F0.0
F0.0
I0
tp1646
tp1647
a(S'835 WASHINGTON ST'
p1648
(I4
I5
F5600.0
F1463.0
I1906
tp1649
tp1650
a(S'270 ATHENS ST'
p1651
(I1
I1
F1150.0
F2495.0
I1946
tp1652
tp1653
a(S'1040 LOMBARD ST'
p1654
(I3
I1
F3680.0
F4726.0
I1911
tp1655
tp1656
a(S'1 BLUXOME ST'
p1657
(I2
I0
F2300.0
F0.0
I2003
tp1658
tp1659
a(S'1666 21ST AVE'
p1660
(I1
I1
F1550.0
F2996.0
I1928
tp1661
tp1662
a(S'127 MIRAMAR AVE'
p1663
(I2
I1
F1684.0
F2809.0
I1940
tp1664
tp1665
a(S'49 PEARL ST'
p1666
(I0
I1
F1147.0
F0.0
I1908
tp1667
tp1668
a(S'201 LAGUNA ST'
p1669
(I0
I1
F990.0
F0.0
I1990
tp1670
tp1671
a(S'2631 YORBA ST'
p1672
(I1
I1
F1190.0
F2944.0
I1947
tp1673
tp1674
a(S'1251 SILVER AVE'
p1675
(I2
I2
F2798.0
F2171.0
I1962
tp1676
tp1677
a(S'412 JOOST AVE'
p1678
(I1
I1
F1745.0
F2500.0
I1911
tp1679
tp1680
a(S'1745 LEAVENWORTH ST'
p1681
(I1
I1
F1675.0
F2182.0
I1915
tp1682
tp1683
a(S'1034 DE HARO ST'
p1684
(I1
I1
F940.0
F2495.0
I1941
tp1685
tp1686
a(S'200 BRANNAN ST'
p1687
(I3
I0
F2042.0
F0.0
I2004
tp1688
tp1689
a(S'371 SAN JOSE AVE'
p1690
(I3
I8
F6525.0
F3149.0
I1910
tp1691
tp1692
a(S'652 17TH AVE'
p1693
(I2
I1
F1555.0
F3480.0
I1912
tp1694
tp1695
a(S'959 14TH ST'
p1696
(I2
I1
F1690.0
F0.0
I1908
tp1697
tp1698
a(S'2434 16TH AVE'
p1699
(I1
I1
F1265.0
F3000.0
I1929
tp1700
tp1701
a(S'2354 48TH AVE'
p1702
(I1
I1
F1012.0
F2996.0
I1947
tp1703
tp1704
a(S'2644 03RD ST'
p1705
(I2
I0
F1980.0
F0.0
I1885
tp1706
tp1707
a(S'690 CHESTNUT ST'
p1708
(I0
I1
F1408.0
F0.0
I1997
tp1709
tp1710
a(S'100 GUTTENBERG ST'
p1711
(I1
I1
F1404.0
F2278.0
I1928
tp1712
tp1713
a(S'14 EDGEHILL WAY'
p1714
(I3
I1
F5231.0
F5201.0
I1995
tp1715
tp1716
a(S'31 LOIS LN'
p1717
(I2
I1
F1874.0
F941.0
I1997
tp1718
tp1719
a(S'1800 LOMBARD ST'
p1720
(I1
I1
F45000.0
F6600.0
I1997
tp1721
tp1722
a(S'110 06TH AVE'
p1723
(I3
I6
F7920.0
F3249.0
I1916
tp1724
tp1725
a(S'2462 46TH AVE'
p1726
(I1
I1
F1300.0
F2996.0
I1947
tp1727
tp1728
a(S'1531 BURROWS ST'
p1729
(I1
I1
F2127.0
F2495.0
I1955
tp1730
tp1731
a(S'388 TOWNSEND ST'
p1732
(I2
I1
F929.0
F0.0
I1999
tp1733
tp1734
a(S'739 12TH AVE'
p1735
(I2
I1
F3218.0
F2996.0
I1917
tp1736
tp1737
a(S'76 LAPIDGE ST'
p1738
(I1
I1
F2689.0
F3500.0
I1949
tp1739
tp1740
a(S'2326 36TH AVE'
p1741
(I1
I1
F1624.0
F3000.0
I1949
tp1742
tp1743
a(S'1706 12TH AVE'
p1744
(I1
I1
F2739.0
F2021.0
I1938
tp1745
tp1746
a(S'525 FREDERICK ST'
p1747
(I3
I3
F4200.0
F3436.0
I1908
tp1748
tp1749
a(S'1275 GREENWICH ST'
p1750
(I6
I13
F31100.0
F10088.0
I1926
tp1751
tp1752
a(S'601 VAN NESS AVE'
p1753
(I1
I1
F489.0
F0.0
I1982
tp1754
tp1755
a(S'979 DELANO AVE'
p1756
(I1
I1
F1296.0
F1611.0
I1941
tp1757
tp1758
a(S'255 BERRY ST'
p1759
(I0
I0
F1770.0
F0.0
I2004
tp1760
tp1761
a(S'164 DIAMOND ST'
p1762
(I2
I1
F1122.0
F0.0
I1985
tp1763
tp1764
a(S'2579 16TH AVE'
p1765
(I1
I1
F1430.0
F2996.0
I1927
tp1766
tp1767
a(S'1750 LOMBARD ST'
p1768
(I2
I21
F4230.0
F7837.5
I1946
tp1769
tp1770
a(S'63 CERES ST'
p1771
(I1
I1
F1930.0
F2495.0
I1944
tp1772
tp1773
a(S'300 03RD ST'
p1774
(I1
I1
F946.0
F0.0
I1990
tp1775
tp1776
a(S'2527 27TH AVE'
p1777
(I1
I1
F1060.0
F2996.0
I1906
tp1778
tp1779
a(S'415 CLAYTON ST'
p1780
(I1
I3
F1465.0
F2652.0
I1900
tp1781
tp1782
a(S'2448 15TH ST'
p1783
(I3
I6
F5211.0
F3336.0
I1907
tp1784
tp1785
a(S'999 GREEN ST'
p1786
(I1
I1
F986.0
F0.0
I1964
tp1787
tp1788
a(S'2367 42ND AVE'
p1789
(I1
I1
F1011.0
F2996.0
I1948
tp1790
tp1791
a(S'136 ACADIA ST'
p1792
(I2
I1
F1537.0
F2500.0
I1921
tp1793
tp1794
a(S'2215 46TH AVE'
p1795
(I1
I1
F1265.0
F2375.0
I1936
tp1796
tp1797
a(S'1295 15TH AVE'
p1798
(I3
I15
F9960.0
F4000.0
I1926
tp1799
tp1800
a(S'27 MIRAMAR AVE'
p1801
(I1
I1
F2442.0
F2812.5
I1998
tp1802
tp1803
a(S'85 21ST AVE'
p1804
(I3
I1
F2647.0
F2275.0
I1900
tp1805
tp1806
a(S'1546 46TH AVE'
p1807
(I1
I1
F1150.0
F2996.0
I1938
tp1808
tp1809
a(S'2447 JACKSON ST'
p1810
(I0
I1
F1123.0
F0.0
I1904
tp1811
tp1812
a(S'1950 GOUGH ST'
p1813
(I1
I1
F400.0
F0.0
I1926
tp1814
tp1815
a(S'1520 PACIFIC AVE'
p1816
(I2
I1
F0.0
F2299.0
I1925
tp1817
tp1818
a(S'361 GUERRERO ST'
p1819
(I2
I2
F3414.0
F3080.0
I1938
tp1820
tp1821
a(S'2568 24TH AVE'
p1822
(I1
I1
F805.0
F3200.4
I1925
tp1823
tp1824
a(S'136 LAWRENCE AVE'
p1825
(I1
I1
F1050.0
F2250.0
I1927
tp1826
tp1827
a(S'310 VALDEZ AVE'
p1828
(I1
I1
F1630.0
F4046.0
I1926
tp1829
tp1830
a(S'331 POPE ST'
p1831
(I1
I1
F1194.0
F2996.0
I1928
tp1832
tp1833
a(S'2665 34TH AVE'
p1834
(I1
I1
F1877.0
F3628.0
I1931
tp1835
tp1836
a(S'1556 HAIGHT ST'
p1837
(I1
I0
F3781.0
F3781.25
I1930
tp1838
tp1839
a(S'614 36TH AVE'
p1840
(I1
I1
F850.0
F1245.0
I1926
tp1841
tp1842
a(S'146 LOCUST ST'
p1843
(I0
I1
F2320.0
F0.0
I1909
tp1844
tp1845
a(S'1048 UNION ST'
p1846
(I3
I20
F16230.0
F12236.0
I1918
tp1847
tp1848
a(S'601 VAN NESS AVE'
p1849
(I1
I1
F489.0
F0.0
I1982
tp1850
tp1851
a(S'3325 KIRKHAM ST'
p1852
(I1
I1
F1375.0
F2495.0
I1939
tp1853
tp1854
a(S'2140 48TH AVE'
p1855
(I1
I1
F1749.0
F2996.0
I1920
tp1856
tp1857
a(S'25 SIERRA ST'
p1858
(I2
I0
F986.0
F0.0
I2006
tp1859
tp1860
a(S'2076 16TH AVE'
p1861
(I1
I1
F3174.0
F3950.0
I1940
tp1862
tp1863
a(S'2621 ALEMANY BLVD'
p1864
(I2
I1
F2084.0
F0.0
I1972
tp1865
tp1866
a(S'203 PROSPECT AVE'
p1867
(I3
I3
F2760.0
F1749.75
I1905
tp1868
tp1869
a(S'2491 41ST AVE'
p1870
(I1
I1
F1214.0
F2060.0
I1945
tp1871
tp1872
a(S'368 CORBETT AVE'
p1873
(I1
I1
F940.0
F1768.0
I1937
tp1874
tp1875
a(S'353 MOLIMO DR'
p1876
(I2
I1
F1460.0
F2417.0
I1948
tp1877
tp1878
a(S'1933 KIRKHAM ST'
p1879
(I2
I2
F2000.0
F2495.0
I1938
tp1880
tp1881
a(S'238 JUANITA WAY'
p1882
(I1
I1
F1934.0
F3079.0
I1927
tp1883
tp1884
a(S'1310 39TH AVE'
p1885
(I2
I2
F2500.0
F2374.0
I1948
tp1886
tp1887
a(S'2980 24TH AVE'
p1888
(I2
I1
F2955.0
F4400.0
I1937
tp1889
tp1890
a(S'2141 32ND AVE'
p1891
(I1
I1
F1450.0
F2927.0
I1938
tp1892
tp1893
a(S'20 FRANKLIN ST'
p1894
(I6
I72
F61553.0
F8600.0
I1917
tp1895
tp1896
a(S'422 14TH ST'
p1897
(I0
I1
F1137.0
F0.0
I1907
tp1898
tp1899
a(S'57 DANTON ST'
p1900
(I1
I1
F1299.0
F2500.0
I1931
tp1901
tp1902
a(S'1245 BACON ST'
p1903
(I1
I1
F1200.0
F1751.0
I1949
tp1904
tp1905
a(S'984 DOLORES ST'
p1906
(I2
I4
F2928.0
F2935.0
I1900
tp1907
tp1908
a(S'175 RED ROCK WAY'
p1909
(I0
I1
F596.0
F0.0
I0
tp1910
tp1911
a(S'44 ESCONDIDO AVE'
p1912
(I1
I1
F3016.0
F4005.0
I1928
tp1913
tp1914
a(S'149 27TH ST'
p1915
(I2
I4
F3600.0
F3420.0
I1907
tp1916
tp1917
a(S'2455 43RD AVE'
p1918
(I1
I1
F1016.0
F2996.0
I1943
tp1919
tp1920
a(S'2918 21ST AVE'
p1921
(I2
I1
F1921.0
F4000.0
I1932
tp1922
tp1923
a(S'0 UNKNOWN '
p1924
(I0
I0
F0.0
F27965.0
I1900
tp1925
tp1926
a(S'157 PARKER AVE'
p1927
(I2
I2
F2526.0
F3000.0
I1924
tp1928
tp1929
a(S'1219 HAYES ST'
p1930
(I1
I1
F1200.0
F0.0
I1906
tp1931
tp1932
a(S'2346 CLEMENT ST'
p1933
(I1
I0
F695.0
F0.0
I2004
tp1934
tp1935
a(S'1333 JONES ST'
p1936
(I14
I0
F0.0
F0.0
I1961
tp1937
tp1938
a(S'679 14TH AVE'
p1939
(I2
I3
F4038.0
F2562.5
I1921
tp1940
tp1941
a(S'401 FOLSOM ST'
p1942
(I4
I0
F0.0
F11247.0
I1900
tp1943
tp1944
a(S'166 GATES ST'
p1945
(I1
I1
F480.0
F1750.0
I1906
tp1946
tp1947
a(S'710 POWELL ST'
p1948
(I0
I1
F0.0
F0.0
I0
tp1949
tp1950
a(S'725 21ST AVE'
p1951
(I2
I3
F3676.0
F3600.0
I1950
tp1952
tp1953
a(S'71 CARMEL ST'
p1954
(I1
I1
F1330.0
F3114.0
I1927
tp1955
tp1956
a(S'1207 37TH AVE'
p1957
(I0
I0
F885.0
F0.0
I1945
tp1958
tp1959
a(S'4645 19TH ST'
p1960
(I2
I1
F1208.0
F2750.0
I1949
tp1961
tp1962
a(S'51 POND ST'
p1963
(I0
I0
F1135.0
F0.0
I1885
tp1964
tp1965
a(S'2526 35TH AVE'
p1966
(I1
I1
F1250.0
F2996.0
I1931
tp1967
tp1968
a(S'915 GARFIELD ST'
p1969
(I1
I1
F1350.0
F2199.0
I1941
tp1970
tp1971
a(S'486 16TH AVE'
p1972
(I2
I1
F1290.0
F2250.0
I1911
tp1973
tp1974
a(S'1143 CAPITOL AVE'
p1975
(I1
I1
F960.0
F2809.0
I1900
tp1976
tp1977
a(S'539 02ND AVE'
p1978
(I2
I1
F1445.0
F3000.0
I1900
tp1979
tp1980
a(S'159 GUTTENBERG ST'
p1981
(I1
I1
F1662.0
F2069.0
I1954
tp1982
tp1983
a(S'150 GAVEN ST'
p1984
(I1
I1
F1088.0
F1912.0
I1943
tp1985
tp1986
a(S'3114 24TH ST'
p1987
(I3
I6
F2912.0
F1844.0
I1900
tp1988
tp1989
a(S'2559 40TH AVE'
p1990
(I2
I0
F0.0
F8729.0
I1947
tp1991
tp1992
a(S'58 BELCHER ST'
p1993
(I0
I2
F2839.0
F3123.0
I1900
tp1994
tp1995
a(S'778 COLE ST'
p1996
(I2
I2
F2050.0
F3123.0
I1902
tp1997
tp1998
a(S'1635 CALIFORNIA ST'
p1999
(I1
I0
F866.0
F0.0
I2005
tp2000
tp2001
a(S'710 POWELL ST'
p2002
(I0
I1
F0.0
F0.0
I0
tp2003
tp2004
a(S'486 20TH AVE'
p2005
(I2
I1
F1768.0
F1437.0
I1916
tp2006
tp2007
a(S'2138 33RD AVE'
p2008
(I1
I1
F1400.0
F2996.0
I1936
tp2009
tp2010
a(S'275 ROMAIN ST'
p2011
(I1
I1
F1123.0
F2522.0
I1948
tp2012
tp2013
a(S'1557 11TH AVE'
p2014
(I2
I2
F3712.0
F3000.0
I1965
tp2015
tp2016
a(S'300 IVY ST'
p2017
(I1
I0
F1075.0
F0.0
I2014
tp2018
tp2019
a(S'250 TRUMBULL ST'
p2020
(I1
I1
F850.0
F2750.0
I1947
tp2021
tp2022
a(S'375 OAK ST'
p2023
(I2
I0
F1303.0
F0.0
I1900
tp2024
tp2025
a(S'550 ARCH ST'
p2026
(I1
I1
F1475.0
F2495.0
I1925
tp2027
tp2028
a(S'1843 FILLMORE ST'
p2029
(I4
I13
F0.0
F2495.0
I1900
tp2030
tp2031
a(S'625 18TH AVE'
p2032
(I2
I1
F1900.0
F3000.0
I1915
tp2033
tp2034
a(S'846 26TH AVE'
p2035
(I3
I0
F1624.0
F0.0
I1927
tp2036
tp2037
a(S'1340 CLAYTON ST'
p2038
(I1
I1
F720.0
F1420.0
I1937
tp2039
tp2040
a(S'0 UNKNOWN '
p2041
(I0
I0
F0.0
F27965.0
I1900
tp2042
tp2043
a(S'350 09TH AVE'
p2044
(I3
I5
F68065.0
F65980.0
I1923
tp2045
tp2046
a(S'2200 MARKET ST'
p2047
(I1
I0
F818.0
F0.0
I2014
tp2048
tp2049
a(S'2455 22ND AVE'
p2050
(I1
I1
F1380.0
F2996.0
I1928
tp2051
tp2052
a(S'1447 FUNSTON AVE'
p2053
(I1
I1
F1050.0
F3000.0
I1915
tp2054
tp2055
a(S'2238 29TH AVE'
p2056
(I1
I1
F1806.0
F2996.0
I1936
tp2057
tp2058
a(S'2112 HYDE ST'
p2059
(I3
I0
F888.0
F0.0
I1964
tp2060
tp2061
a(S'1819 MCALLISTER ST'
p2062
(I2
I2
F2750.0
F2186.0
I1900
tp2063
tp2064
a(S'320 TEXAS ST'
p2065
(I0
I0
F1433.0
F0.0
I1912
tp2066
tp2067
a(S'1655 27TH AVE'
p2068
(I1
I1
F1668.0
F2996.0
I1936
tp2069
tp2070
a(S'22 HILLWAY AVE'
p2071
(I2
I1
F1596.0
F2513.5
I1915
tp2072
tp2073
a(S'111 GATES ST'
p2074
(I1
I1
F1207.0
F1746.0
I1964
tp2075
tp2076
a(S'900 PINE ST'
p2077
(I3
I4
F4503.0
F1437.5
I1915
tp2078
tp2079
a(S'3330 FOLSOM ST'
p2080
(I2
I1
F1150.0
F1197.0
I1906
tp2081
tp2082
a(S'223 FELTON ST'
p2083
(I1
I1
F1865.0
F2234.0
I1912
tp2084
tp2085
a(S'501 03RD AVE'
p2086
(I2
I3
F4540.0
F2818.0
I1904
tp2087
tp2088
a(S'285 TELEGRAPH HILL BLVD'
p2089
(I2
I1
F4400.0
F2709.0
I1937
tp2090
tp2091
a(S'120 HAZELWOOD AVE'
p2092
(I1
I1
F1136.0
F3698.0
I1921
tp2093
tp2094
a(S'1737 BROADWAY '
p2095
(I2
I4
F3590.0
F4255.0
I1900
tp2096
tp2097
a(S'632 JUDAH ST'
p2098
(I2
I1
F1546.0
F2495.0
I1907
tp2099
tp2100
a(S'28 NAVAJO AVE'
p2101
(I1
I1
F1150.0
F2495.0
I1930
tp2102
tp2103
a(S'1750 TAYLOR ST'
p2104
(I27
I0
F1640.0
F0.0
I1964
tp2105
tp2106
a(S'865 RHODE ISLAND ST'
p2107
(I2
I1
F2500.0
F2495.0
I1916
tp2108
tp2109
a(S'335 BERRY ST'
p2110
(I1
I0
F921.0
F0.0
I2009
tp2111
tp2112
a(S'491 12TH AVE'
p2113
(I2
I1
F2050.0
F2996.0
I1914
tp2114
tp2115
a(S'1222 39TH AVE'
p2116
(I1
I1
F1566.0
F2996.0
I1927
tp2117
tp2118
a(S'387 ARGUELLO BLVD'
p2119
(I2
I9
F8096.0
F4826.0
I1902
tp2120
tp2121
a(S'1681 QUINT ST'
p2122
(I1
I1
F850.0
F2809.0
I1947
tp2123
tp2124
a(S'3900 CALIFORNIA ST'
p2125
(I0
I1
F2106.0
F0.0
I1984
tp2126
tp2127
a(S'2247 MISSION ST'
p2128
(I1
I0
F0.0
F3672.0
I1918
tp2129
tp2130
a(S'1335 FILBERT ST'
p2131
(I3
I1
F953.0
F0.0
I1924
tp2132
tp2133
a(S'2482 44TH AVE'
p2134
(I1
I1
F1275.0
F2060.0
I1941
tp2135
tp2136
a(S'224 MISSISSIPPI ST'
p2137
(I2
I1
F3030.0
F2500.0
I1948
tp2138
tp2139
a(S'589 HAIGHT ST'
p2140
(I2
I2
F3600.0
F1799.0
I1900
tp2141
tp2142
a(S'647 ALVARADO ST'
p2143
(I2
I1
F1208.0
F2850.0
I1914
tp2144
tp2145
a(S'786 FOERSTER ST'
p2146
(I1
I1
F900.0
F2461.0
I1930
tp2147
tp2148
a(S'1372 GROVE ST'
p2149
(I0
I1
F1490.0
F0.0
I1890
tp2150
tp2151
a(S'441 MASON ST'
p2152
(I0
I1
F0.0
F0.0
I0
tp2153
tp2154
a(S'225 DOWNEY ST'
p2155
(I2
I5
F4752.0
F2000.0
I1911
tp2156
tp2157
a(S'245 05TH ST'
p2158
(I0
I1
F1566.0
F0.0
I1996
tp2159
tp2160
a(S'1718 33RD AVE'
p2161
(I1
I1
F1270.0
F3000.0
I1940
tp2162
tp2163
a(S'545 SHIELDS ST'
p2164
(I1
I1
F1330.0
F2495.0
I1954
tp2165
tp2166
a(S'387 EUREKA ST'
p2167
(I1
I1
F1050.0
F1598.0
I1922
tp2168
tp2169
a(S'900 GILMAN AVE'
p2170
(I3
I0
F750.0
F0.0
I2006
tp2171
tp2172
a(S'1255 SILVER AVE'
p2173
(I1
I1
F1607.0
F1875.0
I1925
tp2174
tp2175
a(S'441 MASON ST'
p2176
(I0
I1
F0.0
F0.0
I0
tp2177
tp2178
a(S'38 BLAKE ST'
p2179
(I1
I1
F1654.0
F2922.0
I1900
tp2180
tp2181
a(S'1023 CHURCH ST'
p2182
(I1
I1
F612.0
F0.0
I1981
tp2183
tp2184
a(S'86 APOLLO ST'
p2185
(I1
I1
F1215.0
F2252.0
I1941
tp2186
tp2187
a(S'228 SAN JOSE AVE'
p2188
(I3
I3
F5044.0
F4578.0
I1909
tp2189
tp2190
a(S'738 ANDERSON ST'
p2191
(I1
I1
F1500.0
F1750.0
I1981
tp2192
tp2193
a(S'2621 PACHECO ST'
p2194
(I1
I1
F965.0
F1873.0
I1943
tp2195
tp2196
a(S'1556 HAMPSHIRE ST'
p2197
(I2
I1
F1452.0
F1711.0
I1907
tp2198
tp2199
a(S'24 BOSWORTH ST'
p2200
(I1
I1
F1254.0
F1341.0
I1905
tp2201
tp2202
a(S'409 29TH ST'
p2203
(I1
I1
F1046.0
F2850.0
I1900
tp2204
tp2205
a(S'18 CHENERY ST'
p2206
(I2
I2
F2120.0
F3125.0
I1908
tp2207
tp2208
a(S'258 CAMBRIDGE ST'
p2209
(I1
I1
F984.0
F2996.0
I1944
tp2210
tp2211
a(S'750 02ND ST'
p2212
(I617
I0
F2617.0
F0.0
I2013
tp2213
tp2214
a(S'325 LAKE ST'
p2215
(I2
I2
F3200.0
F2495.0
I1907
tp2216
tp2217
a(S'441 MASON ST'
p2218
(I0
I1
F0.0
F0.0
I0
tp2219
tp2220
a(S'816 PERU AVE'
p2221
(I1
I1
F1260.0
F2000.0
I1965
tp2222
tp2223
a(S'926 SILLIMAN ST'
p2224
(I1
I1
F1262.0
F1999.0
I1957
tp2225
tp2226
a(S'2287 38TH AVE'
p2227
(I1
I1
F1137.0
F1750.0
I1948
tp2228
tp2229
a(S'441 MASON ST'
p2230
(I0
I1
F0.0
F0.0
I0
tp2231
tp2232
a(S'53 LA GRANDE AVE'
p2233
(I1
I1
F1400.0
F2524.9
I1992
tp2234
tp2235
a(S'969 TERESITA BLVD'
p2236
(I1
I1
F1101.0
F2495.0
I1946
tp2237
tp2238
a(S'1305 WALLER ST'
p2239
(I1
I0
F929.0
F0.0
I1908
tp2240
tp2241
a(S'84 ONONDAGA AVE'
p2242
(I2
I5
F3350.0
F2021.0
I1955
tp2243
tp2244
a(S'631 FOLSOM ST'
p2245
(I1
I0
F1190.0
F0.0
I2009
tp2246
tp2247
a(S'534 19TH AVE'
p2248
(I2
I1
F1800.0
F2996.0
I1913
tp2249
tp2250
a(S'1262 SILVER AVE'
p2251
(I2
I2
F3000.0
F3092.0
I1964
tp2252
tp2253
a(S'41 JUNIPER ST'
p2254
(I2
I4
F2555.0
F0.0
I1906
tp2255
tp2256
a(S'0 UNKNOWN '
p2257
(I0
I0
F0.0
F27965.0
I1900
tp2258
tp2259
a(S'1125 MARIPOSA ST'
p2260
(I1
I0
F0.0
F5000.0
I1947
tp2261
tp2262
a(S'1645 PACIFIC AVE'
p2263
(I1
I1
F1209.0
F0.0
I2014
tp2264
tp2265
a(S'57 REBECCA LN'
p2266
(I2
I1
F1402.0
F1040.0
I0
tp2267
tp2268
a(S'4234 FOLSOM ST'
p2269
(I2
I1
F1525.0
F1751.0
I1979
tp2270
tp2271
a(S'609 BURNETT AVE'
p2272
(I4
I19
F21257.0
F15603.0
I1962
tp2273
tp2274
a(S'2835 VALLEJO ST'
p2275
(I2
I1
F3042.0
F3437.5
I1925
tp2276
tp2277
a(S'1374 33RD AVE'
p2278
(I1
I1
F1540.0
F2996.0
I1938
tp2279
tp2280
a(S'250 ANKENY ST'
p2281
(I1
I1
F957.0
F1799.0
I1963
tp2282
tp2283
a(S'2644 PHELPS ST'
p2284
(I1
I1
F1164.0
F1820.0
I1949
tp2285
tp2286
a(S'2510 35TH AVE'
p2287
(I1
I1
F1530.0
F2374.0
I1931
tp2288
tp2289
a(S'2614 CLEMENT ST'
p2290
(I2
I2
F2216.0
F2495.0
I1946
tp2291
tp2292
a(S'0 UNKNOWN '
p2293
(I0
I0
F0.0
F27965.0
I1900
tp2294
tp2295
a(S'4300 GEARY BLVD'
p2296
(I3
I5
F6824.0
F2188.89
I1988
tp2297
tp2298
a(S'441 MASON ST'
p2299
(I0
I1
F0.0
F0.0
I0
tp2300
tp2301
a(S'2050 34TH AVE'
p2302
(I1
I1
F1579.0
F2996.0
I1950
tp2303
tp2304
a(S'77 07TH AVE'
p2305
(I3
I5
F4875.0
F2850.0
I1905
tp2306
tp2307
a(S'735 MANSELL ST'
p2308
(I1
I1
F1360.0
F2108.0
I1967
tp2309
tp2310
a(S'45 ORA WAY'
p2311
(I1
I1
F676.0
F0.0
I1975
tp2312
tp2313
a(S'324 HOLLOWAY AVE'
p2314
(I1
I1
F1000.0
F2500.0
I1922
tp2315
tp2316
a(S'209 STRATFORD DR'
p2317
(I2
I1
F1736.0
F3554.0
I1941
tp2318
tp2319
a(S'67 EVERSON ST'
p2320
(I1
I1
F2412.0
F4617.0
I1965
tp2321
tp2322
a(S'212 CLEMENT ST'
p2323
(I3
I14
F18500.0
F0.0
I1900
tp2324
tp2325
a(S'154 SOUTH VAN NESS AVE'
p2326
(I1
I1
F0.0
F0.0
I1938
tp2327
tp2328
a(S'325 BERRY ST'
p2329
(I0
I0
F846.0
F0.0
I2007
tp2330
tp2331
a(S'1999 BROADWAY '
p2332
(I1
I1
F2200.0
F0.0
I1927
tp2333
tp2334
a(S'5600 03RD ST'
p2335
(I1
I0
F2901.0
F0.0
I2010
tp2336
tp2337
a(S'905 FLORIDA ST'
p2338
(I0
I0
F1093.0
F0.0
I1900
tp2339
tp2340
a(S'2227 LOMBARD ST'
p2341
(I2
I2
F4188.0
F1668.0
I1931
tp2342
tp2343
a(S'539 SAWYER ST'
p2344
(I1
I1
F1081.0
F2575.0
I1947
tp2345
tp2346
a(S'724 OLMSTEAD ST'
p2347
(I1
I1
F1378.0
F2495.0
I1951
tp2348
tp2349
a(S'43 ELLINGTON AVE'
p2350
(I1
I1
F900.0
F2000.0
I1924
tp2351
tp2352
a(S'2535 25TH AVE'
p2353
(I1
I1
F1205.0
F3000.0
I1930
tp2354
tp2355
a(S'711 VAN NESS AVE'
p2356
(I5
I0
F141369.0
F21980.0
I1984
tp2357
tp2358
a(S'1473 46TH AVE'
p2359
(I1
I1
F1096.0
F1987.5
I1906
tp2360
tp2361
a(S'615 HOLLOWAY AVE'
p2362
(I1
I1
F1467.0
F0.0
I1985
tp2363
tp2364
a(S'929 CAYUGA AVE'
p2365
(I1
I1
F1977.0
F3998.0
I1907
tp2366
tp2367
a(S'3668 18TH ST'
p2368
(I3
I2
F3325.0
F2796.0
I1908
tp2369
tp2370
a(S'0 UNKNOWN '
p2371
(I0
I0
F0.0
F27965.0
I1900
tp2372
tp2373
a(S'710 POWELL ST'
p2374
(I0
I1
F0.0
F0.0
I0
tp2375
tp2376
a(S'242 GAMBIER ST'
p2377
(I1
I1
F1147.0
F3000.0
I1954
tp2378
tp2379
a(S'441 MASON ST'
p2380
(I0
I1
F0.0
F0.0
I0
tp2381
tp2382
a(S'3421 RIVERA ST'
p2383
(I1
I1
F962.0
F2500.0
I1942
tp2384
tp2385
a(S'560 46TH AVE'
p2386
(I1
I1
F1258.0
F2996.0
I1958
tp2387
tp2388
a(S'316 19TH AVE'
p2389
(I2
I4
F4048.0
F3000.0
I1970
tp2390
tp2391
a(S'4750 GEARY BLVD'
p2392
(I2
I21
F6183.0
F7500.0
I1954
tp2393
tp2394
a(S'28 HARTFORD ST'
p2395
(I2
I1
F1787.0
F1999.0
I1901
tp2396
tp2397
a(S'241 ONEIDA AVE'
p2398
(I0
I0
F0.0
F2395.0
I0
tp2399
tp2400
a(S'888 07TH ST'
p2401
(I1
I0
F889.0
F0.0
I2007
tp2402
tp2403
a(S'1404 VAN DYKE AVE'
p2404
(I1
I1
F907.0
F1875.0
I1910
tp2405
tp2406
a(S'2110 JENNINGS ST'
p2407
(I1
I1
F7500.0
F7500.0
I1947
tp2408
tp2409
a(S'95 RED ROCK WAY'
p2410
(I1
I1
F474.0
F0.0
I1972
tp2411
tp2412
a(S'2420 21ST AVE'
p2413
(I1
I1
F985.0
F4008.0
I1950
tp2414
tp2415
a(S'1000 NORTH POINT ST'
p2416
(I18
I0
F582.0
F0.0
I1963
tp2417
tp2418
a(S'78 AQUAVISTA WAY'
p2419
(I1
I1
F923.0
F6337.0
I1964
tp2420
tp2421
a(S'1815 OAK ST'
p2422
(I3
I6
F5750.0
F3437.5
I1900
tp2423
tp2424
a(S'3121 BRODERICK ST'
p2425
(I2
I6
F4602.0
F3114.0
I1959
tp2426
tp2427
a(S'124 CAMPBELL AVE'
p2428
(I1
I1
F949.0
F2495.0
I1955
tp2429
tp2430
a(S'670 20TH AVE'
p2431
(I1
I1
F1350.0
F3550.0
I1922
tp2432
tp2433
a(S'2198 FELL ST'
p2434
(I1
I1
F1148.0
F0.0
I2000
tp2435
tp2436
a(S'1160 MISSION ST'
p2437
(I0
I0
F756.0
F0.0
I2008
tp2438
tp2439
a(S'1271 QUESADA AVE'
p2440
(I1
I1
F995.0
F2500.0
I1944
tp2441
tp2442
a(S'308 WHEELER AVE'
p2443
(I1
I1
F1000.0
F2247.0
I1928
tp2444
tp2445
a(S'874 40TH AVE'
p2446
(I1
I1
F1665.0
F3000.0
I1924
tp2447
tp2448
a(S'444 LAKEVIEW AVE'
p2449
(I2
I1
F1950.0
F2692.0
I1942
tp2450
tp2451
a(S'40 VENTURA AVE'
p2452
(I2
I1
F2208.0
F4173.0
I1927
tp2453
tp2454
a(S'200 FRANCISCO ST'
p2455
(I0
I1
F989.0
F0.0
I1927
tp2456
tp2457
a(S'250 KING ST'
p2458
(I0
I0
F688.0
F0.0
I2004
tp2459
tp2460
a(S'3555 GEARY BLVD'
p2461
(I2
I1
F7210.0
F5945.0
I1941
tp2462
tp2463
a(S'76 LEDYARD ST'
p2464
(I1
I1
F1326.0
F2456.0
I1941
tp2465
tp2466
a(S'0 UNKNOWN '
p2467
(I0
I0
F0.0
F27965.0
I1900
tp2468
tp2469
a(S'441 MASON ST'
p2470
(I0
I1
F0.0
F0.0
I0
tp2471
tp2472
a(S'2500 PHELPS ST'
p2473
(I1
I1
F1380.0
F1663.0
I1965
tp2474
tp2475
a(S'1266 30TH AVE'
p2476
(I2
I1
F2862.0
F3598.0
I1924
tp2477
tp2478
a(S'1090 CHESTNUT ST'
p2479
(I14
I0
F3436.0
F0.0
I1927
tp2480
tp2481
a(S'3016 CLAY ST'
p2482
(I0
I1
F2383.0
F0.0
I1900
tp2483
tp2484
a(S'131 EVELYN WAY'
p2485
(I1
I1
F1395.0
F3894.0
I1929
tp2486
tp2487
a(S'1177 CALIFORNIA ST'
p2488
(I0
I1
F411.0
F0.0
I1978
tp2489
tp2490
a(S'118 MUSEUM WAY'
p2491
(I0
I1
F1751.0
F0.0
I1990
tp2492
tp2493
a(S'410 EDDY ST'
p2494
(I4
I2
F13800.0
F3500.0
I1907
tp2495
tp2496
a(S'435 CRESTMONT DR'
p2497
(I3
I1
F2659.0
F0.0
I1972
tp2498
tp2499
a(S'136 BEULAH ST'
p2500
(I2
I4
F2725.0
F3437.5
I1906
tp2501
tp2502
a(S'1506 FUNSTON AVE'
p2503
(I0
I0
F1723.0
F2250.0
I1976
tp2504
tp2505
a(S'25 WOOD ST'
p2506
(I2
I2
F1980.0
F3027.0
I1916
tp2507
tp2508
a(S'825 FILBERT ST'
p2509
(I3
I5
F5206.0
F2556.0
I1909
tp2510
tp2511
a(S'1831 HAYES ST'
p2512
(I0
I2
F2816.0
F0.0
I1978
tp2513
tp2514
a(S'1679 42ND AVE'
p2515
(I1
I1
F1425.0
F2996.0
I1941
tp2516
tp2517
a(S'2033 14TH AVE'
p2518
(I1
I1
F1335.0
F1977.0
I1947
tp2519
tp2520
a(S'564 SOUTH VAN NESS AVE'
p2521
(I1
I0
F932.0
F0.0
I2007
tp2522
tp2523
a(S'1838 39TH AVE'
p2524
(I1
I1
F1341.0
F3000.0
I1942
tp2525
tp2526
a(S'2643 22ND AVE'
p2527
(I1
I1
F1755.0
F3000.0
I1935
tp2528
tp2529
a(S'2912 24TH ST'
p2530
(I3
I3
F4890.0
F2600.0
I1900
tp2531
tp2532
a(S'1886 42ND AVE'
p2533
(I1
I1
F1542.0
F1437.0
I1944
tp2534
tp2535
a(S'1351 MINNA ST'
p2536
(I0
I0
F1002.0
F0.0
I1907
tp2537
tp2538
a(S'1541 HOWARD ST'
p2539
(I1
I0
F0.0
F2439.0
I1945
tp2540
tp2541
a(S'855 FOLSOM ST'
p2542
(I0
I1
F838.0
F0.0
I2001
tp2543
tp2544
a(S'627 MASONIC AVE'
p2545
(I1
I0
F2006.0
F0.0
I1917
tp2546
tp2547
a(S'451 KANSAS ST'
p2548
(I0
I0
F694.0
F0.0
I2007
tp2549
tp2550
a(S'1715 41ST AVE'
p2551
(I1
I1
F1217.0
F3000.0
I1940
tp2552
tp2553
a(S'770 CAROLINA ST'
p2554
(I2
I2
F1440.0
F2495.0
I1910
tp2555
tp2556
a(S'1648 GROVE ST'
p2557
(I2
I2
F3740.0
F3437.5
I1900
tp2558
tp2559
a(S'218 AMBER DR'
p2560
(I2
I1
F2020.0
F4717.0
I1962
tp2561
tp2562
a(S'16 CRESTLAKE DR'
p2563
(I1
I1
F1534.0
F3297.0
I1936
tp2564
tp2565
a(S'337 SILLIMAN ST'
p2566
(I1
I1
F1300.0
F2500.0
I1906
tp2567
tp2568
a(S'758 11TH AVE'
p2569
(I2
I1
F1409.0
F2996.0
I1911
tp2570
tp2571
a(S'490 34TH AVE'
p2572
(I1
I1
F1344.0
F0.0
I1979
tp2573
tp2574
a(S'250 KING ST'
p2575
(I0
I0
F688.0
F0.0
I2004
tp2576
tp2577
a(S'1224 30TH AVE'
p2578
(I1
I1
F1375.0
F3837.0
I1923
tp2579
tp2580
a(S'4533 CALIFORNIA ST'
p2581
(I2
I4
F4140.0
F2500.0
I1909
tp2582
tp2583
a(S'1840 16TH AVE'
p2584
(I1
I1
F1630.0
F3824.0
I1938
tp2585
tp2586
a(S'168 ANDOVER ST'
p2587
(I3
I1
F1603.0
F1750.0
I1919
tp2588
tp2589
a(S'2068 PINE ST'
p2590
(I2
I2
F3300.0
F2347.0
I1900
tp2591
tp2592
a(S'2232 VICENTE ST'
p2593
(I2
I4
F2970.0
F2495.0
I1948
tp2594
tp2595
a(S'85 ORA WAY'
p2596
(I1
I1
F913.0
F0.0
I1975
tp2597
tp2598
a(S'999 BROTHERHOOD WAY'
p2599
(I1
I0
F0.0
F391874.0
I1963
tp2600
tp2601
a(S'442 HEARST AVE'
p2602
(I1
I1
F1150.0
F2812.5
I1926
tp2603
tp2604
a(S'479 FAIR OAKS ST'
p2605
(I2
I6
F4386.0
F3123.0
I1964
tp2606
tp2607
a(S'4587 18TH ST'
p2608
(I2
I2
F2640.0
F2495.0
I1925
tp2609
tp2610
a(S'254 ROMAIN ST'
p2611
(I1
I1
F1450.0
F2443.0
I1935
tp2612
tp2613
a(S'2190 45TH AVE'
p2614
(I1
I1
F1300.0
F2060.0
I1941
tp2615
tp2616
a(S'441 MASON ST'
p2617
(I0
I1
F0.0
F0.0
I0
tp2618
tp2619
a(S'243 NEY ST'
p2620
(I1
I1
F1125.0
F2750.0
I1925
tp2621
tp2622
a(S'30 JORDAN AVE'
p2623
(I2
I1
F4430.0
F3619.0
I1912
tp2624
tp2625
a(S'316 MOLIMO DR'
p2626
(I1
I1
F1087.0
F2243.0
I1948
tp2627
tp2628
a(S'730 02ND AVE'
p2629
(I2
I1
F2598.0
F2900.0
I1905
tp2630
tp2631
a(S'77 BLUXOME ST'
p2632
(I1
I0
F262.0
F0.0
I2008
tp2633
tp2634
a(S'1611 27TH AVE'
p2635
(I2
I2
F2572.0
F1624.0
I1953
tp2636
tp2637
a(S'936 GEARY ST'
p2638
(I6
I32
F19680.0
F3615.6
I1923
tp2639
tp2640
a(S'69 PROSPER ST'
p2641
(I1
I0
F968.0
F0.0
I1900
tp2642
tp2643
a(S'272 CLAREMONT BLVD'
p2644
(I2
I3
F3640.0
F3188.0
I1932
tp2645
tp2646
a(S'301 MAIN ST'
p2647
(I0
I0
F6307.0
F0.0
I2008
tp2648
tp2649
a(S'2255 38TH AVE'
p2650
(I1
I1
F1162.0
F3000.0
I1945
tp2651
tp2652
a(S'37 CARRIZAL ST'
p2653
(I1
I1
F1355.0
F2500.0
I1947
tp2654
tp2655
a(S'11 CAMEO WAY'
p2656
(I2
I1
F2820.0
F5736.0
I1945
tp2657
tp2658
a(S'567 ATHENS ST'
p2659
(I1
I1
F1611.0
F2500.0
I1927
tp2660
tp2661
a(S'2335 32ND AVE'
p2662
(I1
I1
F2616.0
F3290.4
I1923
tp2663
tp2664
a(S'574 PARIS ST'
p2665
(I2
I1
F1150.0
F2495.0
I1912
tp2666
tp2667
a(S'795 08TH AVE'
p2668
(I1
I1
F823.0
F0.0
I1996
tp2669
tp2670
a(S'2000 POST ST'
p2671
(I0
I1
F602.0
F0.0
I1987
tp2672
tp2673
a(S'2430 17TH AVE'
p2674
(I1
I1
F1180.0
F2996.0
I1924
tp2675
tp2676
a(S'243 WALLER ST'
p2677
(I2
I3
F3530.0
F3537.88
I1890
tp2678
tp2679
a(S'2070 19TH AVE'
p2680
(I1
I1
F1245.0
F2250.0
I1924
tp2681
tp2682
a(S'5431 CALIFORNIA ST'
p2683
(I3
I12
F9225.0
F3843.2
I1925
tp2684
tp2685
a(S'1526 09TH AVE'
p2686
(I2
I1
F1600.0
F2996.0
I1909
tp2687
tp2688
a(S'241 EXCELSIOR AVE'
p2689
(I2
I1
F1700.0
F1873.0
I1919
tp2690
tp2691
a(S'3067 SACRAMENTO ST'
p2692
(I2
I2
F3540.0
F3645.0
I1900
tp2693
tp2694
a(S'2454 25TH AVE'
p2695
(I1
I1
F1870.0
F3000.0
I1924
tp2696
tp2697
a(S'109 MIRAMAR AVE'
p2698
(I1
I1
F1023.0
F1663.0
I1940
tp2699
tp2700
a(S'185 CHILTON AVE'
p2701
(I1
I1
F1271.0
F2500.0
I1915
tp2702
tp2703
a(S'563 22ND AVE'
p2704
(I3
I2
F4773.0
F3000.0
I1984
tp2705
tp2706
a(S'3165 SACRAMENTO ST'
p2707
(I1
I1
F510.0
F0.0
I1900
tp2708
tp2709
a(S'2530 VALLEJO ST'
p2710
(I2
I1
F3380.0
F3000.0
I1925
tp2711
tp2712
a(S'758 SAN JOSE AVE'
p2713
(I1
I1
F1175.0
F2339.0
I1900
tp2714
tp2715
a(S'1839 31ST AVE'
p2716
(I1
I1
F950.0
F2996.0
I1943
tp2717
tp2718
a(S'1556 FILBERT ST'
p2719
(I3
I6
F8094.0
F3846.0
I1925
tp2720
tp2721
a(S'324 FREDERICK ST'
p2722
(I2
I2
F2940.0
F2750.0
I1906
tp2723
tp2724
a(S'1011 UNION ST'
p2725
(I2
I6
F3156.0
F2247.0
I1949
tp2726
tp2727
a(S'3542 JENNINGS ST'
p2728
(I1
I1
F1483.0
F2495.0
I1964
tp2729
tp2730
a(S'10 WILDER ST'
p2731
(I1
I1
F800.0
F1346.0
I1914
tp2732
tp2733
a(S'236 SANTA ROSA AVE'
p2734
(I1
I1
F1272.0
F3062.0
I1924
tp2735
tp2736
a(S'200 BRANNAN ST'
p2737
(I3
I0
F2042.0
F0.0
I2004
tp2738
tp2739
a(S'89 STANYAN BLVD'
p2740
(I2
I2
F2278.0
F2761.0
I1939
tp2741
tp2742
a(S'166 CURTIS ST'
p2743
(I1
I1
F1025.0
F2996.0
I1941
tp2744
tp2745
a(S'19 CASTILLO ST'
p2746
(I2
I2
F1900.0
F2500.0
I1948
tp2747
tp2748
a(S'431 LELAND AVE'
p2749
(I1
I1
F1130.0
F2043.75
I1944
tp2750
tp2751
a(S'1190 REVERE AVE'
p2752
(I1
I1
F1600.0
F1829.0
I1989
tp2753
tp2754
a(S'34 WILLIAMS AVE'
p2755
(I2
I0
F2680.0
F2500.0
I1918
tp2756
tp2757
a(S'548 BRANNAN ST'
p2758
(I0
I0
F1173.0
F0.0
I2003
tp2759
tp2760
a(S'2045 MONTEREY BLVD'
p2761
(I2
I1
F1392.0
F3998.0
I1923
tp2762
tp2763
a(S'2027 MARKET ST'
p2764
(I0
I1
F1203.0
F0.0
I1995
tp2765
tp2766
a(S'312 19TH AVE'
p2767
(I3
I1
F3182.0
F1800.0
I1906
tp2768
tp2769
a(S'2555 16TH AVE'
p2770
(I1
I1
F1475.0
F3000.0
I1922
tp2771
tp2772
a(S'3232 MISSION ST'
p2773
(I2
I3
F3150.0
F2495.0
I1900
tp2774
tp2775
a(S'565 ARGUELLO BLVD'
p2776
(I0
I0
F1471.0
F0.0
I2007
tp2777
tp2778
a(S'2215 43RD AVE'
p2779
(I1
I1
F1216.0
F3000.0
I1941
tp2780
tp2781
a(S'2266 BAY ST'
p2782
(I2
I0
F2425.0
F2812.5
I1968
tp2783
tp2784
a(S'1252 BROADWAY '
p2785
(I3
I3
F5011.0
F3184.5
I1996
tp2786
tp2787
a(S'6509 GEARY BLVD'
p2788
(I1
I1
F763.0
F5100.0
I1981
tp2789
tp2790
a(S'542 CAMPBELL AVE'
p2791
(I1
I1
F1237.0
F2495.0
I1953
tp2792
tp2793
a(S'455 SCOTT ST'
p2794
(I0
I0
F1852.0
F0.0
I1988
tp2795
tp2796
a(S'1542 24TH AVE'
p2797
(I1
I1
F1500.0
F2996.0
I1939
tp2798
tp2799
a(S'710 POWELL ST'
p2800
(I0
I1
F0.0
F0.0
I0
tp2801
tp2802
a(S'1718 33RD AVE'
p2803
(I1
I1
F1270.0
F3000.0
I1940
tp2804
tp2805
a(S'2701 ARELIOUS WALKER DR'
p2806
(I0
I0
F0.0
F49100.0
I0
tp2807
tp2808
a(S'1836 NORIEGA ST'
p2809
(I1
I2
F2009.0
F2478.0
I1932
tp2810
tp2811
a(S'527 HEARST AVE'
p2812
(I1
I1
F1190.0
F3375.0
I1923
tp2813
tp2814
a(S'241 04TH AVE'
p2815
(I2
I4
F3646.0
F2996.0
I1910
tp2816
tp2817
a(S'909 DARTMOUTH ST'
p2818
(I2
I1
F1460.0
F3000.0
I1965
tp2819
tp2820
a(S'2486 15TH AVE'
p2821
(I2
I1
F1230.0
F1964.0
I1926
tp2822
tp2823
a(S'1374 BROADWAY '
p2824
(I3
I4
F5100.0
F2275.0
I1915
tp2825
tp2826
a(S'1727 18TH AVE'
p2827
(I1
I1
F1425.0
F3000.0
I1929
tp2828
tp2829
a(S'170 RIPLEY ST'
p2830
(I2
I1
F3500.0
F2250.0
I1900
tp2831
tp2832
a(S'2600 LYON ST'
p2833
(I3
I1
F4610.0
F3768.55
I1916
tp2834
tp2835
a(S'542 33RD AVE'
p2836
(I1
I1
F1205.0
F3000.0
I1925
tp2837
tp2838
a(S'1506 27TH AVE'
p2839
(I1
I1
F1540.0
F2374.0
I1932
tp2840
tp2841
a(S'807 COLUMBUS AVE'
p2842
(I0
I0
F1040.0
F0.0
I2003
tp2843
tp2844
a(S'1442 20TH AVE'
p2845
(I2
I2
F2700.0
F3000.0
I1940
tp2846
tp2847
a(S'71 SYLVAN DR'
p2848
(I1
I1
F1224.0
F2495.0
I1941
tp2849
tp2850
a(S'3408 CLAY ST'
p2851
(I3
I1
F2800.0
F3432.31
I1900
tp2852
tp2853
a(S'643 EDNA ST'
p2854
(I1
I1
F1995.0
F2474.0
I1924
tp2855
tp2856
a(S'4238 23RD ST'
p2857
(I2
I1
F1600.0
F1393.0
I1908
tp2858
tp2859
a(S'147 SHIPLEY ST'
p2860
(I3
I1
F1197.0
F0.0
I1992
tp2861
tp2862
a(S'1940 20TH AVE'
p2863
(I1
I1
F1398.0
F2996.0
I1926
tp2864
tp2865
a(S'385 LIBERTY ST'
p2866
(I3
I1
F3545.0
F3135.0
I1993
tp2867
tp2868
a(S'2732 ANZA ST'
p2869
(I1
I1
F1697.0
F0.0
I1941
tp2870
tp2871
a(S'437 GAVEN ST'
p2872
(I0
I1
F0.0
F0.0
I1997
tp2873
tp2874
a(S'3833 20TH ST'
p2875
(I2
I0
F900.0
F2850.0
I1906
tp2876
tp2877
a(S'456 LAKE ST'
p2878
(I0
I1
F2343.0
F2184.0
I1912
tp2879
tp2880
a(S'1839 48TH AVE'
p2881
(I1
I1
F1317.0
F2121.0
I1945
tp2882
tp2883
a(S'300 03RD ST'
p2884
(I1
I1
F946.0
F0.0
I1990
tp2885
tp2886
a(S'423 JERSEY ST'
p2887
(I2
I1
F2115.0
F2278.0
I1912
tp2888
tp2889
a(S'49 POND ST'
p2890
(I0
I0
F974.0
F0.0
I1890
tp2891
tp2892
a(S'1234 HAWES ST'
p2893
(I1
I1
F1200.0
F1873.0
I1941
tp2894
tp2895
a(S'90 BRIDGEVIEW DR'
p2896
(I1
I1
F1629.0
F3689.0
I1954
tp2897
tp2898
a(S'631 FOLSOM ST'
p2899
(I1
I0
F1190.0
F0.0
I2009
tp2900
tp2901
a(S'131 STAPLES AVE'
p2902
(I1
I1
F1175.0
F3746.0
I1923
tp2903
tp2904
a(S'151 SWISS AVE'
p2905
(I1
I1
F756.0
F2448.0
I1950
tp2906
tp2907
a(S'348 GRAFTON AVE'
p2908
(I1
I1
F1126.0
F2500.0
I1948
tp2909
tp2910
a(S'0 UNKNOWN '
p2911
(I0
I0
F0.0
F27965.0
I1900
tp2912
tp2913
a(S'1400 MISSION ST'
p2914
(I2
I0
F0.0
F24631.0
I0
tp2915
tp2916
a(S'1512 YORK ST'
p2917
(I1
I0
F1112.0
F0.0
I1902
tp2918
tp2919
a(S'338 SPEAR ST'
p2920
(I0
I0
F6307.0
F0.0
I2008
tp2921
tp2922
a.