(lp0
(F37.7876582
F-122.3905155
tp1
a(F37.7634531
F-122.3890791
tp2
a(F37.78038400000001
F-122.44772
tp3
a(F37.729078
F-122.417283
tp4
a(F37.732506
F-122.45316
tp5
a(F37.764865
F-122.430132
tp6
a(F37.790222
F-122.4329706
tp7
a(F37.7857744
F-122.3973657
tp8
a(F37.7413191
F-122.4800129
tp9
a(F37.753402
F-122.478235
tp10
a(F37.769594
F-122.423028
tp11
a(F37.711173
F-122.430496
tp12
a(F37.78525399999999
F-122.468556
tp13
a(F37.797042
F-122.42407
tp14
a(F37.74721
F-122.4236055
tp15
a(F37.712513
F-122.459426
tp16
a(F37.717263
F-122.400733
tp17
a(F37.7731034
F-122.508072
tp18
a(F37.801884
F-122.415212
tp19
a(F37.7338178
F-122.41717
tp20
a(F37.7813446
F-122.4201752
tp21
a(F37.7993974
F-122.4058771
tp22
a(F37.8063098
F-122.4122901
tp23
a(F37.778621
F-122.3918058
tp24
a(F37.750465
F-122.473769
tp25
a(F37.7387439
F-122.409395
tp26
a(F37.732037
F-122.482114
tp27
a(F37.776477
F-122.459324
tp28
a(F37.73386199999999
F-122.392904
tp29
a(F37.7876582
F-122.3905155
tp30
a(F37.7649869
F-122.4501799
tp31
a(F37.7877452
F-122.4104415
tp32
a(F37.782697
F-122.45638
tp33
a(F37.7947409
F-122.4078892
tp34
a(F37.74303700000001
F-122.428368
tp35
a(F37.713098
F-122.447628
tp36
a(F37.770158
F-122.43233
tp37
a(F37.764242
F-122.4672618
tp38
a(F37.798282
F-122.42349
tp39
a(F37.727002
F-122.42472
tp40
a(F37.7783799
F-122.4414348
tp41
a(F37.756989
F-122.42827
tp42
a(F37.73147
F-122.465832
tp43
a(F37.7448276
F-122.4168724
tp44
a(F37.7429759
F-122.4709603
tp45
a(F37.768876
F-122.445737
tp46
a(F37.709112
F-122.457463
tp47
a(F37.7688434
F-122.4107965
tp48
a(F37.761824
F-122.434263
tp49
a(F37.746234
F-122.413147
tp50
a(F37.738341
F-122.435643
tp51
a(F37.74682019999999
F-122.4082429
tp52
a(F37.774735
F-122.460934
tp53
a(F37.791077
F-122.414339
tp54
a(F37.788397
F-122.425615
tp55
a(F37.749847
F-122.468093
tp56
a(F37.715004
F-122.414464
tp57
a(F37.7638443
F-122.4029888
tp58
a(F37.771596
F-122.447618
tp59
a(F37.784639
F-122.448344
tp60
a(F37.710117
F-122.4256807
tp61
a(F37.747459
F-122.498163
tp62
a(F37.779132
F-122.445194
tp63
a(F37.795924
F-122.439546
tp64
a(F37.8005441
F-122.4441557
tp65
a(F37.783021
F-122.478166
tp66
a(F37.7689882
F-122.4313033
tp67
a(F37.71145
F-122.440948
tp68
a(F37.720101
F-122.436875
tp69
a(F37.746633
F-122.498183
tp70
a(F37.759234
F-122.484842
tp71
a(F37.7504459
F-122.429277
tp72
a(F37.752237
F-122.487398
tp73
a(F37.7734128
F-122.3957474
tp74
a(F37.720155
F-122.392659
tp75
a(F37.72021
F-122.395493
tp76
a(F37.7749295
F-122.4194155
tp77
a(F37.715774
F-122.447126
tp78
a(F37.7129808
F-122.4357372
tp79
a(F37.754097
F-122.456665
tp80
a(F37.8071128
F-122.4185585
tp81
a(F37.7523097
F-122.4262232
tp82
a(F37.777342
F-122.499304
tp83
a(F37.727263
F-122.437496
tp84
a(F37.7253057
F-122.4606631
tp85
a(F37.745546
F-122.386581
tp86
a(F37.7629792
F-122.4639022
tp87
a(F37.731855
F-122.386628
tp88
a(F37.77393
F-122.396241
tp89
a(F37.75081
F-122.477569
tp90
a(F37.755617
F-122.439145
tp91
a(F37.708863
F-122.470704
tp92
a(F37.732345
F-122.410605
tp93
a(F37.744123
F-122.423716
tp94
a(F37.7632228
F-122.4200811
tp95
a(F37.77107
F-122.410201
tp96
a(F37.729016
F-122.470255
tp97
a(F37.752573
F-122.401088
tp98
a(F37.7379416
F-122.4333894
tp99
a(F37.734634
F-122.431194
tp100
a(F37.756661
F-122.477419
tp101
a(F37.72272299999999
F-122.466838
tp102
a(F37.776428
F-122.460397
tp103
a(F37.780819
F-122.442487
tp104
a(F37.790596
F-122.444059
tp105
a(F37.760936
F-122.479834
tp106
a(F37.771234
F-122.435488
tp107
a(F37.715504
F-122.468635
tp108
a(F37.7685876
F-122.4229837
tp109
a(F37.7440571
F-122.4166699
tp110
a(F37.7736793
F-122.5041045
tp111
a(F37.764517
F-122.469896
tp112
a(F37.716131
F-122.3897164
tp113
a(F37.7858954
F-122.4756776
tp114
a(F37.7317127
F-122.4517214
tp115
a(F37.738
F-122.428908
tp116
a(F37.757143
F-122.506442
tp117
a(F37.717568
F-122.386436
tp118
a(F37.765562
F-122.463527
tp119
a(F37.792107
F-122.431374
tp120
a(F37.754164
F-122.448906
tp121
a(F37.783789
F-122.454348
tp122
a(F37.75716240000001
F-122.4200512
tp123
a(F37.799029
F-122.4367095
tp124
a(F37.7924719
F-122.425281
tp125
a(F37.737564
F-122.493323
tp126
a(F37.714728
F-122.445815
tp127
a(F37.8003888
F-122.4364158
tp128
a(F37.735082
F-122.459672
tp129
a(F37.7956991
F-122.4007434
tp130
a(F37.7863607
F-122.4258197
tp131
a(F37.7519149
F-122.491603
tp132
a(F37.798447
F-122.415218
tp133
a(F37.7393659
F-122.504123
tp134
a(F37.7401369
F-122.4275089
tp135
a(F37.7964646
F-122.4355651
tp136
a(F37.7856661
F-122.4344496
tp137
a(F37.7493849
F-122.435012
tp138
a(F37.736008
F-122.497022
tp139
a(F37.772835
F-122.396429
tp140
a(F37.738684
F-122.41812
tp141
a(F37.7910683
F-122.4113055
tp142
a(F37.7867735
F-122.4241362
tp143
a(F37.776262
F-122.406661
tp144
a(F37.7170332
F-122.4426623
tp145
a(F37.78840539999999
F-122.4097688
tp146
a(F37.7087739
F-122.4236652
tp147
a(F37.760176
F-122.442504
tp148
a(F37.781885
F-122.441125
tp149
a(F37.738209
F-122.473955
tp150
a(F37.8063098
F-122.4122901
tp151
a(F37.73744
F-122.414263
tp152
a(F37.7599427
F-122.4997015
tp153
a(F37.75378
F-122.412526
tp154
a(F37.734697
F-122.384496
tp155
a(F37.761793
F-122.4259462
tp156
a(F37.803839
F-122.414563
tp157
a(F37.7634479
F-122.487591
tp158
a(F37.7868797
F-122.3934879
tp159
a(F37.7933497
F-122.4120667
tp160
a(F37.728361
F-122.388204
tp161
a(F37.721257
F-122.432586
tp162
a(F37.750717
F-122.487301
tp163
a(F37.739108
F-122.387752
tp164
a(F37.762347
F-122.41863
tp165
a(F37.7084336
F-122.4070577
tp166
a(F37.7307289
F-122.455911
tp167
a(F37.744917
F-122.408638
tp168
a(F37.7879972
F-122.406304
tp169
a(F37.7877452
F-122.4104415
tp170
a(F37.780829
F-122.4617267
tp171
a(F37.71968400000001
F-122.409465
tp172
a(F37.7795886
F-122.4056573
tp173
a(F37.725029
F-122.428788
tp174
a(F37.802117
F-122.420005
tp175
a(F37.7906221
F-122.4264485
tp176
a(F37.74381700000001
F-122.433688
tp177
a(F37.73025
F-122.40974
tp178
a(F37.7540135
F-122.4374634
tp179
a(F37.7651674
F-122.4743018
tp180
a(F37.7746966
F-122.4948062
tp181
a(F37.729418
F-122.385069
tp182
a(F37.7760661
F-122.4198517
tp183
a(F37.7447019
F-122.498046
tp184
a(F37.791013
F-122.441417
tp185
a(F37.718657
F-122.40144
tp186
a(F37.7270309
F-122.416965
tp187
a(F37.7397009
F-122.482652
tp188
a(F37.7836882
F-122.3935753
tp189
a(F37.7158473
F-122.4637079
tp190
a(F37.790387
F-122.3961664
tp191
a(F37.798073
F-122.423447
tp192
a(F37.70975869999999
F-122.4499695
tp193
a(F37.713448
F-122.460032
tp194
a(F37.738616
F-122.41813
tp195
a(F37.71641
F-122.470441
tp196
a(F37.7403331
F-122.4177833
tp197
a(F37.764396
F-122.467739
tp198
a(F37.751524
F-122.473391
tp199
a(F37.7631847
F-122.4610914
tp200
a(F37.8046846
F-122.4223968
tp201
a(F37.766085
F-122.4269081
tp202
a(F37.7877452
F-122.4104415
tp203
a(F37.7338539
F-122.4892911
tp204
a(F37.7970757
F-122.4447806
tp205
a(F37.7688385
F-122.430333
tp206
a(F37.733307
F-122.483086
tp207
a(F37.7757873
F-122.4145278
tp208
a(F37.7637676
F-122.4402202
tp209
a(F37.791868
F-122.420088
tp210
a(F37.787262
F-122.465063
tp211
a(F37.760396
F-122.500972
tp212
a(F37.758987
F-122.450878
tp213
a(F37.7867744
F-122.4224906
tp214
a(F37.7797082
F-122.4868306
tp215
a(F37.7668511
F-122.4286153
tp216
a(F37.7841514
F-122.4744996
tp217
a(F37.7168607
F-122.4410201
tp218
a(F37.723881
F-122.468752
tp219
a(F37.7936915
F-122.4234902
tp220
a(F37.7459201
F-122.4405175
tp221
a(F37.7779534
F-122.4595282
tp222
a(F37.745821
F-122.482004
tp223
a(F37.775696
F-122.397237
tp224
a(F37.7912928
F-122.4088209
tp225
a(F37.8063098
F-122.4122901
tp226
a(F37.774539
F-122.402447
tp227
a(F37.753383
F-122.505764
tp228
a(F37.717099
F-122.470104
tp229
a(F37.7742864
F-122.460328
tp230
a(F37.71483300000001
F-122.434999
tp231
a(F37.7735294
F-122.4388653
tp232
a(F37.7270923
F-122.3979472
tp233
a(F37.7649803
F-122.394407
tp234
a(F37.7283661
F-122.428501
tp235
a(F37.772939
F-122.481618
tp236
a(F37.7876831
F-122.3917907
tp237
a(F37.795917
F-122.41909
tp238
a(F37.710309
F-122.422783
tp239
a(F37.754038
F-122.441804
tp240
a(F37.731864
F-122.43688
tp241
a(F37.710749
F-122.409566
tp242
a(F37.7982683
F-122.4364558
tp243
a(F37.7699158
F-122.4328064
tp244
a(F37.7518123
F-122.41874
tp245
a(F37.802083
F-122.431143
tp246
a(F37.78867
F-122.445332
tp247
a(F37.759047
F-122.498019
tp248
a(F37.7816279
F-122.4878891
tp249
a(F37.778076
F-122.407711
tp250
a(F37.7850997
F-122.4205869
tp251
a(F37.7856661
F-122.4344496
tp252
a(F37.7416259
F-122.447375
tp253
a(F37.780696
F-122.485128
tp254
a(F37.745636
F-122.483066
tp255
a(F37.778312
F-122.460117
tp256
a(F37.71055
F-122.424584
tp257
a(F37.7972576
F-122.4226055
tp258
a(F37.7789324
F-122.4236955
tp259
a(F37.754504
F-122.476131
tp260
a(F37.712321
F-122.398147
tp261
a(F37.7530316
F-122.4001621
tp262
a(F37.72097
F-122.3976881
tp263
a(F37.7596869
F-122.428646
tp264
a(F37.73283
F-122.449884
tp265
a(F37.756074
F-122.48226
tp266
a(F37.746857
F-122.497783
tp267
a(F37.795183
F-122.437109
tp268
a(F37.7465339
F-122.486437
tp269
a(F37.745045
F-122.457705
tp270
a(F37.748265
F-122.489531
tp271
a(F37.7542283
F-122.4280249
tp272
a(F37.7515355
F-122.4411264
tp273
a(F37.723335
F-122.429669
tp274
a(F37.714951
F-122.407002
tp275
a(F37.7748043
F-122.4289438
tp276
a(F37.7537043
F-122.3902787
tp277
a(F37.765206
F-122.428371
tp278
a(F37.743825
F-122.469943
tp279
a(F37.7643635
F-122.4178296
tp280
a(F37.776518
F-122.473407
tp281
a(F37.75378
F-122.412526
tp282
a(F37.7781311
F-122.3932477
tp283
a(F37.7460662
F-122.4885918
tp284
a(F37.7849064
F-122.4163661
tp285
a(F37.7434086
F-122.4331213
tp286
a(F37.760643
F-122.442805
tp287
a(F37.7442831
F-122.4336632
tp288
a(F37.733384
F-122.402482
tp289
a(F37.793049
F-122.442393
tp290
a(F37.780634
F-122.442089
tp291
a(F37.754657
F-122.422426
tp292
a(F37.773244
F-122.495317
tp293
a(F37.7749295
F-122.4194155
tp294
a(F37.779242
F-122.4105273
tp295
a(F37.7835714
F-122.3907007
tp296
a(F37.791857
F-122.44322
tp297
a(F37.8042225
F-122.4042321
tp298
a(F37.731868
F-122.484217
tp299
a(F37.778376
F-122.454194
tp300
a(F37.737806
F-122.497145
tp301
a(F37.733735
F-122.45692
tp302
a(F37.759845
F-122.486211
tp303
a(F37.737916
F-122.501767
tp304
a(F37.739795
F-122.388146
tp305
a(F37.723059
F-122.407979
tp306
a(F37.722508
F-122.457479
tp307
a(F37.75806499999999
F-122.493192
tp308
a(F37.75737600000001
F-122.468322
tp309
a(F37.77897129999999
F-122.4876594
tp310
a(F37.756833
F-122.426329
tp311
a(F37.7424041
F-122.4370147
tp312
a(F37.7993266
F-122.4125548
tp313
a(F37.768036
F-122.445901
tp314
a(F37.754115
F-122.424501
tp315
a(F37.73613
F-122.422794
tp316
a(F37.738891
F-122.490041
tp317
a(F37.777484
F-122.446477
tp318
a(F37.7394959
F-122.4144406
tp319
a(F37.729234
F-122.391415
tp320
a(F37.7092399
F-122.4077252
tp321
a(F37.7350959
F-122.4009715
tp322
a(F37.767681
F-122.426065
tp323
a(F37.785882
F-122.487611
tp324
a(F37.735646
F-122.436774
tp325
a(F37.7461333
F-122.4157167
tp326
a(F37.737825
F-122.413849
tp327
a(F37.78577
F-122.3988537
tp328
a(F37.761622
F-122.454615
tp329
a(F37.727054
F-122.42592
tp330
a(F37.741132
F-122.411508
tp331
a(F37.739496
F-122.464998
tp332
a(F37.7901568
F-122.4057559
tp333
a(F37.7877452
F-122.4104415
tp334
a(F37.783014
F-122.4592475
tp335
a(F37.749408
F-122.480764
tp336
a(F37.73909
F-122.49013
tp337
a(F37.730455
F-122.395482
tp338
a(F37.7860889
F-122.443712
tp339
a(F37.7797503
F-122.4054407
tp340
a(F37.725733
F-122.41491
tp341
a(F37.75842
F-122.440761
tp342
a(F37.790387
F-122.3961664
tp343
a(F37.777641
F-122.501499
tp344
a(F37.793368
F-122.422239
tp345
a(F37.7831837
F-122.4076941
tp346
a(F37.712922
F-122.4356487
tp347
a(F37.746939
F-122.436175
tp348
a(F37.779853
F-122.3923158
tp349
a(F37.800005
F-122.4266489
tp350
a(F37.7842424
F-122.4869088
tp351
a(F37.737805
F-122.448812
tp352
a(F37.7915441
F-122.4221102
tp353
a(F37.750699
F-122.439931
tp354
a(F37.775066
F-122.467361
tp355
a(F37.759331
F-122.465653
tp356
a(F37.757979
F-122.494678
tp357
a(F37.77678909999999
F-122.4183296
tp358
a(F37.7868797
F-122.3934879
tp359
a(F37.775692
F-122.509491
tp360
a(F37.770812
F-122.409878
tp361
a(F37.742787
F-122.497496
tp362
a(F37.775419
F-122.453904
tp363
a(F37.8051548
F-122.4458471
tp364
a(F37.73936399999999
F-122.451634
tp365
a(F37.796825
F-122.424761
tp366
a(F37.7794539
F-122.3966763
tp367
a(F37.786812
F-122.452679
tp368
a(F37.743761
F-122.434948
tp369
a(F37.7395179
F-122.431115
tp370
a(F37.7547894
F-122.4250254
tp371
a(F37.745436
F-122.455309
tp372
a(F37.753582
F-122.504045
tp373
a(F37.7779839
F-122.459018
tp374
a(F37.716296
F-122.436081
tp375
a(F37.761633
F-122.503534
tp376
a(F37.765337
F-122.446295
tp377
a(F37.782155
F-122.487308
tp378
a(F37.777188
F-122.439698
tp379
a(F37.7590122
F-122.5087691
tp380
a(F37.757783
F-122.412075
tp381
a(F37.792762
F-122.420224
tp382
a(F37.774946
F-122.443437
tp383
a(F37.7782466
F-122.4315443
tp384
a(F37.752905
F-122.486381
tp385
a(F37.7097182
F-122.4407526
tp386
a(F37.77262
F-122.493539
tp387
a(F37.78136
F-122.46893
tp388
a(F37.7906199
F-122.439896
tp389
a(F37.7877452
F-122.4104415
tp390
a(F37.7614187
F-122.4118655
tp391
a(F37.7288146
F-122.4259056
tp392
a(F37.741765
F-122.461179
tp393
a(F37.7772379
F-122.426162
tp394
a(F37.76537
F-122.429106
tp395
a(F37.7552511
F-122.456513
tp396
a(F37.720214
F-122.4106029
tp397
a(F37.7978777
F-122.4194971
tp398
a(F37.7370329
F-122.44763
tp399
a(F37.7148084
F-122.4332609
tp400
a(F37.761231
F-122.405452
tp401
a(F37.7750286
F-122.5111855
tp402
a(F37.717811
F-122.396255
tp403
a(F37.710474
F-122.421527
tp404
a(F37.7271016
F-122.4317304
tp405
a(F37.7464843
F-122.467061
tp406
a(F37.732117
F-122.443461
tp407
a(F37.758847
F-122.395511
tp408
a(F37.7876831
F-122.3917907
tp409
a(F37.745466
F-122.486936
tp410
a(F37.7459201
F-122.4405175
tp411
a(F37.7846951
F-122.408189
tp412
a(F37.7573884
F-122.4456121
tp413
a(F37.7831837
F-122.4076941
tp414
a(F37.730528
F-122.3918625
tp415
a(F37.7909769
F-122.4136606
tp416
a(F37.738059
F-122.400301
tp417
a(F37.79582
F-122.419072
tp418
a(F37.728885
F-122.388056
tp419
a(F37.766879
F-122.43843
tp420
a(F37.7527065
F-122.45691
tp421
a(F37.713973
F-122.47447
tp422
a(F37.7807699
F-122.439613
tp423
a(F37.782594
F-122.485251
tp424
a(F37.746898
F-122.467601
tp425
a(F37.7848176
F-122.3969578
tp426
a(F37.773302
F-122.491021
tp427
a(F37.7965401
F-122.4069168
tp428
a(F37.7546
F-122.437373
tp429
a(F37.73515
F-122.4312877
tp430
a(F37.744857
F-122.49764
tp431
a(F37.736875
F-122.418625
tp432
a(F37.7888057
F-122.4133227
tp433
a(F37.724651
F-122.422799
tp434
a(F37.723825
F-122.426433
tp435
a(F37.717032
F-122.438795
tp436
a(F37.8005545
F-122.4397493
tp437
a(F37.7592339
F-122.3910709
tp438
a(F37.755085
F-122.494183
tp439
a(F37.7267045
F-122.3939582
tp440
a(F37.77393
F-122.396241
tp441
a(F37.771658
F-122.435662
tp442
a(F37.708448
F-122.466021
tp443
a(F37.7963639
F-122.435937
tp444
a(F37.7661381
F-122.4189189
tp445
a(F37.720701
F-122.455433
tp446
a(F37.729646
F-122.445299
tp447
a(F37.7813853
F-122.4214224
tp448
a(F37.7211
F-122.429585
tp449
a(F37.709489
F-122.4414701
tp450
a(F37.7903329
F-122.449498
tp451
a(F37.738543
F-122.504065
tp452
a(F37.727595
F-122.437107
tp453
a(F37.734003
F-122.449181
tp454
a(F37.8054605
F-122.4241338
tp455
a(F37.732203
F-122.466664
tp456
a(F37.80412500000001
F-122.441334
tp457
a(F37.74195400000001
F-122.464441
tp458
a(F37.723237
F-122.4545155
tp459
a(F37.7615833
F-122.4362792
tp460
a(F37.7928489
F-122.429853
tp461
a(F37.754606
F-122.473837
tp462
a(F37.7095706
F-122.415068
tp463
a(F37.76050499999999
F-122.488403
tp464
a(F37.770952
F-122.410054
tp465
a(F37.752768
F-122.484639
tp466
a(F37.755187
F-122.48802
tp467
a(F37.7856983
F-122.4065287
tp468
a(F37.743101
F-122.487188
tp469
a(F37.782647
F-122.475995
tp470
a(F37.722803
F-122.403038
tp471
a(F37.727691
F-122.417065
tp472
a(F37.75651
F-122.398549
tp473
a(F37.7936915
F-122.4234902
tp474
a(F37.7557816
F-122.4369232
tp475
a(F37.787406
F-122.466136
tp476
a(F37.7866446
F-122.4193329
tp477
a(F37.721731
F-122.473359
tp478
a(F37.774485
F-122.4134428
tp479
a(F37.754287
F-122.429598
tp480
a(F37.7857744
F-122.3973657
tp481
a(F37.726411
F-122.431012
tp482
a(F37.787062
F-122.482146
tp483
a(F37.7874762
F-122.4494077
tp484
a(F37.786006
F-122.460671
tp485
a(F37.765924
F-122.3965328
tp486
a(F37.7312269
F-122.419533
tp487
a(F37.751712
F-122.478774
tp488
a(F37.77584
F-122.464238
tp489
a(F37.7614639
F-122.494924
tp490
a(F37.777016
F-122.494517
tp491
a(F37.773045
F-122.479663
tp492
a(F37.7142269
F-122.4367884
tp493
a(F37.713244
F-122.464666
tp494
a(F37.76065
F-122.445865
tp495
a(F37.7877707
F-122.4282017
tp496
a(F37.7371089
F-122.42252
tp497
a(F37.786807
F-122.410209
tp498
a(F37.7741832
F-122.3947556
tp499
a(F37.764748
F-122.456461
tp500
a(F37.7725654
F-122.4844187
tp501
a(F37.762253
F-122.480584
tp502
a(F37.761194
F-122.48287
tp503
a(F37.7817483
F-122.4787021
tp504
a(F37.746417
F-122.411844
tp505
a(F37.7536571
F-122.484621
tp506
a(F37.8054605
F-122.4241338
tp507
a(F37.753851
F-122.40024
tp508
a(F37.723132
F-122.455445
tp509
a(F37.78577
F-122.3988537
tp510
a(F37.7978809
F-122.418523
tp511
a(F37.756982
F-122.429017
tp512
a(F37.8007113
F-122.4258611
tp513
a(F37.759099
F-122.403655
tp514
a(F37.78817919999999
F-122.4179624
tp515
a(F37.7867735
F-122.4241362
tp516
a(F37.752532
F-122.443486
tp517
a(F37.722371
F-122.386562
tp518
a(F37.7935221
F-122.413914
tp519
a(F37.758652
F-122.398408
tp520
a(F37.73527
F-122.414076
tp521
a(F37.750781
F-122.49053
tp522
a(F37.744414
F-122.4066651
tp523
a(F37.7793528
F-122.4380058
tp524
a(F37.777993
F-122.47018
tp525
a(F37.7772049
F-122.3940134
tp526
a(F37.7791818
F-122.4590524
tp527
a(F37.724506
F-122.427692
tp528
a(F37.791656
F-122.4145259
tp529
a(F37.800573
F-122.424849
tp530
a(F37.759968
F-122.477161
tp531
a(F37.779657
F-122.482222
tp532
a(F37.7650275
F-122.4795594
tp533
a(F37.751317
F-122.440934
tp534
a(F37.780064
F-122.393173
tp535
a(F37.769969
F-122.42423
tp536
a(F37.757779
F-122.423963
tp537
a(F37.796009
F-122.446098
tp538
a(F37.733412
F-122.440077
tp539
a(F37.758826
F-122.425123
tp540
a(F37.7765709
F-122.497053
tp541
a(F37.745485
F-122.47548
tp542
a(F37.752986
F-122.481432
tp543
a(F37.75378
F-122.412526
tp544
a(F37.800147
F-122.40842
tp545
a(F37.767842
F-122.422709
tp546
a(F37.8014016
F-122.4193581
tp547
a(F37.7716277
F-122.3874442
tp548
a(F37.7877452
F-122.4104415
tp549
a(F37.794929
F-122.407238
tp550
a(F37.723771
F-122.427159
tp551
a(F37.8023289
F-122.4187144
tp552
a(F37.7774232
F-122.3958836
tp553
a(F37.756654
F-122.478459
tp554
a(F37.720555
F-122.458494
tp555
a(F37.7705999
F-122.4237171
tp556
a(F37.7729815
F-122.425826
tp557
a(F37.7344719
F-122.495027
tp558
a(F37.73073300000001
F-122.411653
tp559
a(F37.7325097
F-122.4446601
tp560
a(F37.797174
F-122.41727
tp561
a(F37.756627
F-122.401129
tp562
a(F37.7835714
F-122.3907007
tp563
a(F37.7492747
F-122.4210352
tp564
a(F37.775708
F-122.475492
tp565
a(F37.767142
F-122.434621
tp566
a(F37.742513
F-122.472107
tp567
a(F37.742525
F-122.506495
tp568
a(F37.7562863
F-122.3883564
tp569
a(F37.803839
F-122.414563
tp570
a(F37.71154000000001
F-122.444257
tp571
a(F37.7434237
F-122.4607389
tp572
a(F37.7134856
F-122.3991662
tp573
a(F37.8007053
F-122.4314502
tp574
a(F37.7864342
F-122.4644998
tp575
a(F37.740613
F-122.50421
tp576
a(F37.7249397
F-122.4184307
tp577
a(F37.775873
F-122.397012
tp578
a(F37.774301
F-122.47057
tp579
a(F37.760491
F-122.4224914
tp580
a(F37.743572
F-122.493671
tp581
a(F37.75624
F-122.468725
tp582
a(F37.7663088
F-122.4534565
tp583
a(F37.800646
F-122.420472
tp584
a(F37.7813853
F-122.4214224
tp585
a(F37.7166486
F-122.4470408
tp586
a(F37.7741832
F-122.3947556
tp587
a(F37.759683
F-122.437416
tp588
a(F37.739869
F-122.472578
tp589
a(F37.8008818
F-122.4304625
tp590
a(F37.730043
F-122.394074
tp591
a(F37.7834748
F-122.3988968
tp592
a(F37.74024199999999
F-122.484423
tp593
a(F37.771091
F-122.449146
tp594
a(F37.766255
F-122.437703
tp595
a(F37.798447
F-122.415218
tp596
a(F37.742577
F-122.500705
tp597
a(F37.732179
F-122.437184
tp598
a(F37.745145
F-122.505145
tp599
a(F37.7638554
F-122.4728383
tp600
a(F37.718744
F-122.458484
tp601
a(F37.7861377
F-122.4810637
tp602
a(F37.757677
F-122.505405
tp603
a(F37.7920902
F-122.4352779
tp604
a(F37.79155799999999
F-122.425677
tp605
a(F37.7953878
F-122.4204074
tp606
a(F37.7654939
F-122.423837
tp607
a(F37.739707
F-122.480501
tp608
a(F37.710756
F-122.452196
tp609
a(F37.733004
F-122.456013
tp610
a(F37.711122
F-122.439626
tp611
a(F37.737566
F-122.491775
tp612
a(F37.7701731
F-122.4479599
tp613
a(F37.7772827
F-122.4961539
tp614
a(F37.7896021
F-122.4521536
tp615
a(F37.799788
F-122.416764
tp616
a(F37.7813853
F-122.4214224
tp617
a(F37.758717
F-122.496627
tp618
a(F37.746527
F-122.506779
tp619
a(F37.757917
F-122.395476
tp620
a(F37.74931900000001
F-122.472567
tp621
a(F37.714308
F-122.447447
tp622
a(F37.7422314
F-122.419555
tp623
a(F37.740344
F-122.499409
tp624
a(F37.7595791
F-122.4460436
tp625
a(F37.737437
F-122.45209
tp626
a(F37.7593256
F-122.4817408
tp627
a(F37.740832
F-122.456625
tp628
a(F37.762348
F-122.498251
tp629
a(F37.73292199999999
F-122.479872
tp630
a(F37.747202
F-122.490281
tp631
a(F37.7746865
F-122.4208261
tp632
a(F37.768334
F-122.422838
tp633
a(F37.73161
F-122.432303
tp634
a(F37.7244931
F-122.4151829
tp635
a(F37.753735
F-122.425748
tp636
a(F37.7456722
F-122.4423641
tp637
a(F37.7349417
F-122.4897881
tp638
a(F37.746862
F-122.423525
tp639
a(F37.7408659
F-122.501661
tp640
a(F37.734142
F-122.476783
tp641
a(F37.75378
F-122.412526
tp642
a(F37.782584
F-122.454717
tp643
a(F37.7750477
F-122.4365987
tp644
a(F37.7822516
F-122.4846181
tp645
a(F37.7936511
F-122.4148841
tp646
a(F37.775381
F-122.472772
tp647
a(F37.787627
F-122.393585
tp648
a(F37.7406931
F-122.4140894
tp649
a(F37.7912928
F-122.4088209
tp650
a(F37.774124
F-122.480332
tp651
a(F37.76078070000001
F-122.4482899
tp652
a(F37.7643624
F-122.4967014
tp653
a(F37.7588169
F-122.4414986
tp654
a(F37.7634524
F-122.4319878
tp655
a(F37.739893
F-122.492339
tp656
a(F37.719441
F-122.471074
tp657
a(F37.778897
F-122.474703
tp658
a(F37.722641
F-122.459521
tp659
a(F37.7785362
F-122.4599785
tp660
a(F37.71110600000001
F-122.443365
tp661
a(F37.7335165
F-122.4087678
tp662
a(F37.75261260000001
F-122.4146234
tp663
a(F37.7390145
F-122.4983138
tp664
a(F37.768379
F-122.430472
tp665
a(F37.7672003
F-122.4500097
tp666
a(F37.790236
F-122.4213556
tp667
a(F37.7912928
F-122.4088209
tp668
a(F37.7787007
F-122.4790417
tp669
a(F37.74723900000001
F-122.490701
tp670
a(F37.755618
F-122.442263
tp671
a(F37.759099
F-122.468442
tp672
a(F37.77743820000001
F-122.42343
tp673
a(F37.730716
F-122.424962
tp674
a(F37.77440199999999
F-122.425386
tp675
a(F37.720683
F-122.466889
tp676
a(F37.786591
F-122.433669
tp677
a(F37.7761497
F-122.4771821
tp678
a(F37.7735163
F-122.4851738
tp679
a(F37.7596355
F-122.4462473
tp680
a(F37.75378
F-122.412526
tp681
a(F37.7819205
F-122.4667591
tp682
a(F37.7657912
F-122.4315109
tp683
a(F37.741856
F-122.479162
tp684
a(F37.761074
F-122.470731
tp685
a(F37.745564
F-122.486284
tp686
a(F37.8004883
F-122.4191841
tp687
a(F37.777092
F-122.44218
tp688
a(F37.762293
F-122.3958101
tp689
a(F37.756547
F-122.485563
tp690
a(F37.7645749
F-122.456625
tp691
a(F37.74115
F-122.4136515
tp692
a(F37.79099720000001
F-122.410952
tp693
a(F37.744674
F-122.413612
tp694
a(F37.72919
F-122.406951
tp695
a(F37.779077
F-122.461203
tp696
a(F37.8035015
F-122.4067648
tp697
a(F37.730921
F-122.454248
tp698
a(F37.795146
F-122.425682
tp699
a(F37.762299
F-122.46896
tp700
a(F37.7198909
F-122.443363
tp701
a(F37.7986359
F-122.4132054
tp702
a(F37.7588409
F-122.401689
tp703
a(F37.772835
F-122.396429
tp704
a(F37.779137
F-122.470921
tp705
a(F37.764009
F-122.498324
tp706
a(F37.78354480000001
F-122.4591384
tp707
a(F37.7353949
F-122.397837
tp708
a(F37.785865
F-122.459528
tp709
a(F37.7610579
F-122.4189429
tp710
a(F37.799544
F-122.421513
tp711
a(F37.740364
F-122.502107
tp712
a(F37.7635733
F-122.3949976
tp713
a(F37.7717493
F-122.4317823
tp714
a(F37.7533839
F-122.435357
tp715
a(F37.735735
F-122.448595
tp716
a(F37.776048
F-122.439213
tp717
a(F37.7877452
F-122.4104415
tp718
a(F37.7648954
F-122.446964
tp719
a(F37.7813072
F-122.4038246
tp720
a(F37.755044
F-122.491248
tp721
a(F37.717693
F-122.467887
tp722
a(F37.7561279
F-122.437635
tp723
a(F37.717568
F-122.386436
tp724
a(F37.730747
F-122.411566
tp725
a(F37.7877452
F-122.4104415
tp726
a(F37.78311
F-122.451033
tp727
a(F37.754505
F-122.427334
tp728
a(F37.731798
F-122.398641
tp729
a(F37.7515574
F-122.4215796
tp730
a(F37.733968
F-122.415819
tp731
a(F37.749758
F-122.48843
tp732
a(F37.7479903
F-122.4065517
tp733
a(F37.7337736
F-122.4269228
tp734
a(F37.7432919
F-122.42932
tp735
a(F37.741591
F-122.426061
tp736
a(F37.728099
F-122.419418
tp737
a(F37.780006
F-122.390271
tp738
a(F37.7864999
F-122.463064
tp739
a(F37.7877452
F-122.4104415
tp740
a(F37.724835
F-122.423461
tp741
a(F37.7289538
F-122.414602
tp742
a(F37.7442909
F-122.49644
tp743
a(F37.7877452
F-122.4104415
tp744
a(F37.724508
F-122.42362
tp745
a(F37.734051
F-122.447976
tp746
a(F37.7691717
F-122.4453227
tp747
a(F37.7220825
F-122.4392941
tp748
a(F37.7848176
F-122.3969578
tp749
a(F37.777778
F-122.477786
tp750
a(F37.730483
F-122.411073
tp751
a(F37.7721615
F-122.4130569
tp752
a(F37.75378
F-122.412526
tp753
a(F37.7637301
F-122.3951916
tp754
a(F37.794657
F-122.422326
tp755
a(F37.737902
F-122.3833845
tp756
a(F37.7341497
F-122.4139462
tp757
a(F37.751271
F-122.444326
tp758
a(F37.793814
F-122.443958
tp759
a(F37.761539
F-122.491703
tp760
a(F37.7199239
F-122.4063496
tp761
a(F37.7288643
F-122.401434
tp762
a(F37.740165
F-122.492402
tp763
a(F37.782151
F-122.487395
tp764
a(F37.75378
F-122.412526
tp765
a(F37.7812259
F-122.465552
tp766
a(F37.7877452
F-122.4104415
tp767
a(F37.748848
F-122.491888
tp768
a(F37.7870289
F-122.466108
tp769
a(F37.7193309
F-122.408313
tp770
a(F37.741647
F-122.4372549
tp771
a(F37.722064
F-122.456653
tp772
a(F37.7211519
F-122.473408
tp773
a(F37.738271
F-122.4307653
tp774
a(F37.7832982
F-122.4615977
tp775
a(F37.7711622
F-122.4185342
tp776
a(F37.7734128
F-122.3957474
tp777
a(F37.7947051
F-122.4297144
tp778
a(F37.7267045
F-122.3939582
tp779
a(F37.7572
F-122.410216
tp780
a(F37.79950729999999
F-122.4382769
tp781
a(F37.710766
F-122.415174
tp782
a(F37.721119
F-122.409059
tp783
a(F37.71542
F-122.442547
tp784
a(F37.7402037
F-122.4821898
tp785
a(F37.7821488
F-122.421184
tp786
a(F37.759104
F-122.506094
tp787
a(F37.72137600000001
F-122.459712
tp788
a(F37.7230554
F-122.4388725
tp789
a(F37.761715
F-122.425311
tp790
a(F37.75378
F-122.412526
tp791
a(F37.7912928
F-122.4088209
tp792
a(F37.726208
F-122.421913
tp793
a(F37.7877452
F-122.4104415
tp794
a(F37.745335
F-122.503147
tp795
a(F37.777852
F-122.50682
tp796
a(F37.781908
F-122.478085
tp797
a(F37.7810598
F-122.4703825
tp798
a(F37.7620498
F-122.4341757
tp799
a(F37.7215557
F-122.4430243
tp800
a(F37.770553
F-122.4004052
tp801
a(F37.727326
F-122.388716
tp802
a(F37.7267737
F-122.3891032
tp803
a(F37.746324
F-122.441517
tp804
a(F37.742541
F-122.477475
tp805
a(F37.8054605
F-122.4241338
tp806
a(F37.753475
F-122.448934
tp807
a(F37.771315
F-122.44942
tp808
a(F37.799219
F-122.44468
tp809
a(F37.715209
F-122.401132
tp810
a(F37.775253
F-122.478642
tp811
a(F37.772221
F-122.453945
tp812
a(F37.7783901
F-122.412238
tp813
a(F37.728597
F-122.383623
tp814
a(F37.7116685
F-122.4002257
tp815
a(F37.7723439
F-122.499967
tp816
a(F37.718185
F-122.453818
tp817
a(F37.7508679
F-122.463512
tp818
a(F37.8054799
F-122.4086959
tp819
a(F37.7781311
F-122.3932477
tp820
a(F37.7810453
F-122.45706
tp821
a(F37.732766
F-122.401872
tp822
a(F37.75378
F-122.412526
tp823
a(F37.7877452
F-122.4104415
tp824
a(F37.7298057
F-122.4005549
tp825
a(F37.763784
F-122.488633
tp826
a(F37.8030273
F-122.4212927
tp827
a(F37.789815
F-122.443395
tp828
a(F37.7431569
F-122.452685
tp829
a(F37.7909769
F-122.4136606
tp830
a(F37.7642908
F-122.4399143
tp831
a(F37.7838681
F-122.4145453
tp832
a(F37.7586333
F-122.460452
tp833
a(F37.767708
F-122.452243
tp834
a(F37.7599625
F-122.4703182
tp835
a(F37.78328500000001
F-122.449588
tp836
a(F37.800648
F-122.413098
tp837
a(F37.773627
F-122.446692
tp838
a(F37.755425
F-122.501604
tp839
a(F37.7501117
F-122.4712105
tp840
a(F37.764117
F-122.417549
tp841
a(F37.75255
F-122.497521
tp842
a(F37.738325
F-122.478915
tp843
a(F37.7530242
F-122.4104426
tp844
a(F37.7515841
F-122.500789
tp845
a(F37.7675434
F-122.4190043
tp846
a(F37.772413
F-122.415954
tp847
a(F37.7807737
F-122.4021633
tp848
a(F37.775359
F-122.4464791
tp849
a(F37.7638443
F-122.4029888
tp850
a(F37.7547039
F-122.50048
tp851
a(F37.758852
F-122.400372
tp852
a(F37.775464
F-122.443866
tp853
a(F37.7438969
F-122.444357
tp854
a(F37.735052
F-122.480102
tp855
a(F37.730067
F-122.40867
tp856
a(F37.774023
F-122.468818
tp857
a(F37.7799732
F-122.4941824
tp858
a(F37.7781311
F-122.3932477
tp859
a(F37.76439500000001
F-122.488675
tp860
a(F37.784491
F-122.466058
tp861
a(F37.7535881
F-122.4728584
tp862
a(F37.7408157
F-122.4165095
tp863
a(F37.788642
F-122.429985
tp864
a(F37.738883
F-122.491071
tp865
a(F37.7406965
F-122.4371919
tp866
a(F37.7140684
F-122.4831241
tp867
a(F37.730946
F-122.447592
tp868
a(F37.749076
F-122.423391
tp869
a(F37.76028100000001
F-122.441271
tp870
a(F37.756013
F-122.442316
tp871
a(F37.745776
F-122.503564
tp872
a(F37.7877452
F-122.4104415
tp873
a(F37.730405
F-122.42511
tp874
a(F37.785288
F-122.456567
tp875
a(F37.737023
F-122.451796
tp876
a(F37.774955
F-122.459221
tp877
a(F37.7762861
F-122.3971411
tp878
a(F37.757305
F-122.485521
tp879
a(F37.786065
F-122.418672
tp880
a(F37.763224
F-122.431401
tp881
a(F37.741088
F-122.4650794
tp882
a(F37.789525
F-122.3911753
tp883
a(F37.744836
F-122.496565
tp884
a(F37.709498
F-122.420207
tp885
a(F37.7456816
F-122.4441445
tp886
a(F37.718922
F-122.430139
tp887
a(F37.74362
F-122.490032
tp888
a(F37.719784
F-122.43671
tp889
a(F37.7749295
F-122.4194155
tp890
a(F37.7851801
F-122.435781
tp891
a(F37.742534
F-122.473182
tp892
a(F37.771221
F-122.427639
tp893
a(F37.749217
F-122.475745
tp894
a(F37.7840724
F-122.4759248
tp895
a(F37.759771
F-122.465683
tp896
a(F37.725332
F-122.431273
tp897
a(F37.7884648
F-122.4433271
tp898
a(F37.741744
F-122.48172
tp899
a(F37.7202454
F-122.4583949
tp900
a(F37.732912
F-122.436763
tp901
a(F37.777122
F-122.481625
tp902
a(F37.788162
F-122.44492
tp903
a(F37.79496
F-122.439043
tp904
a(F37.7426901
F-122.4234793
tp905
a(F37.752898
F-122.489599
tp906
a(F37.799634
F-122.425249
tp907
a(F37.767165
F-122.448716
tp908
a(F37.799392
F-122.416001
tp909
a(F37.718027
F-122.397128
tp910
a(F37.7340205
F-122.4321301
tp911
a(F37.728382
F-122.438573
tp912
a(F37.7835714
F-122.3907007
tp913
a(F37.780105
F-122.456339
tp914
a(F37.7120477
F-122.4395216
tp915
a(F37.709041
F-122.417546
tp916
a(F37.71374900000001
F-122.41253
tp917
a(F37.7274664
F-122.3824243
tp918
a(F37.729672
F-122.393676
tp919
a(F37.7777377
F-122.3977399
tp920
a(F37.7330196
F-122.470174
tp921
a(F37.7683706
F-122.4274857
tp922
a(F37.78200810000001
F-122.4782806
tp923
a(F37.740281
F-122.472608
tp924
a(F37.745013
F-122.4205772
tp925
a(F37.779944
F-122.459162
tp926
a(F37.745285
F-122.501972
tp927
a(F37.8018753
F-122.4444152
tp928
a(F37.796779
F-122.417755
tp929
a(F37.7795739
F-122.489313
tp930
a(F37.715716
F-122.407031
tp931
a(F37.7738807
F-122.436177
tp932
a(F37.758781
F-122.481833
tp933
a(F37.7912928
F-122.4088209
tp934
a(F37.755044
F-122.491248
tp935
a(F37.7184275
F-122.3851352
tp936
a(F37.7541747
F-122.4836688
tp937
a(F37.730436
F-122.449567
tp938
a(F37.784062
F-122.462683
tp939
a(F37.719346
F-122.408585
tp940
a(F37.741694
F-122.471005
tp941
a(F37.796462
F-122.419709
tp942
a(F37.755585
F-122.475825
tp943
a(F37.7441
F-122.411034
tp944
a(F37.7949788
F-122.446577
tp945
a(F37.778828
F-122.492915
tp946
a(F37.759254
F-122.485138
tp947
a(F37.8023175
F-122.413355
tp948
a(F37.760835
F-122.477678
tp949
a(F37.732848
F-122.485702
tp950
a(F37.789054
F-122.449431
tp951
a(F37.732202
F-122.447554
tp952
a(F37.7528764
F-122.4372248
tp953
a(F37.780389
F-122.401735
tp954
a(F37.751518
F-122.47712
tp955
a(F37.756934
F-122.429806
tp956
a(F37.778725
F-122.477735
tp957
a(F37.7317336
F-122.4138451
tp958
a(F37.757937
F-122.426528
tp959
a(F37.78690599999999
F-122.464544
tp960
a(F37.752097
F-122.507758
tp961
a(F37.7834748
F-122.3988968
tp962
a(F37.750214
F-122.434606
tp963
a(F37.7635219
F-122.4319932
tp964
a(F37.728335
F-122.382165
tp965
a(F37.73508
F-122.395179
tp966
a(F37.7848176
F-122.3969578
tp967
a(F37.728841
F-122.445107
tp968
a(F37.735955
F-122.4378266
tp969
a(F37.720251
F-122.456904
tp970
a(F37.75378
F-122.412526
tp971
a(F37.7752817
F-122.4164667
tp972
a(F37.747801
F-122.407806
tp973
a(F37.78942809999999
F-122.3906187
tp974
a.